---
triple:          'arm64-apple-darwin'
binary-path:     test
relocations:
  - { offsetInCU: 0x5C, offset: 0x5C, size: 0x8, addend: 0x0, symName: __ZNSt3__1L19piecewise_constructE, symObjAddr: 0x67EC, symBinAddr: 0x100007BE4, symSize: 0x0 }
  - { offsetInCU: 0x4CBB, offset: 0x4CBB, size: 0x8, addend: 0x0, symName: __ZNSt3__124__put_character_sequenceB7v160006IcNS_11char_traitsIcEEEERNS_13basic_ostreamIT_T0_EES7_PKS4_m, symObjAddr: 0xF8C, symBinAddr: 0x1000020A8, symSize: 0x1EC }
  - { offsetInCU: 0x5B23, offset: 0x5B23, size: 0x8, addend: 0x0, symName: __ZNSt3__17advanceB7v160006INS_21__tree_const_iteratorIiPNS_11__tree_nodeIiPvEElEEllvEEvRT_T0_, symObjAddr: 0x2B6C, symBinAddr: 0x100003C88, symSize: 0x50 }
  - { offsetInCU: 0x94E5, offset: 0x94E5, size: 0x8, addend: 0x0, symName: __ZNSt3__1neB7v160006ERKNS_21__tree_const_iteratorIiPNS_11__tree_nodeIiPvEElEES7_, symObjAddr: 0xC0, symBinAddr: 0x1000011DC, symSize: 0x34 }
  - { offsetInCU: 0x9522, offset: 0x9522, size: 0x8, addend: 0x0, symName: __ZNSt3__1lsB7v160006INS_11char_traitsIcEEEERNS_13basic_ostreamIcT_EES6_PKc, symObjAddr: 0x12C, symBinAddr: 0x100001248, symSize: 0x48 }
  - { offsetInCU: 0x9568, offset: 0x9568, size: 0x8, addend: 0x0, symName: __ZNSt3__14endlB7v160006IcNS_11char_traitsIcEEEERNS_13basic_ostreamIT_T0_EES7_, symObjAddr: 0x950, symBinAddr: 0x100001A6C, symSize: 0x58 }
  - { offsetInCU: 0x95A8, offset: 0x95A8, size: 0x8, addend: 0x0, symName: __ZNSt3__1neB7v160006ERKNS_14__map_iteratorINS_15__tree_iteratorINS_12__value_typeINS_12basic_stringIcNS_11char_traitsIcEENS_9allocatorIcEEEEiEEPNS_11__tree_nodeIS9_PvEElEEEESH_, symObjAddr: 0xBB4, symBinAddr: 0x100001CD0, symSize: 0x30 }
  - { offsetInCU: 0x95E5, offset: 0x95E5, size: 0x8, addend: 0x0, symName: __ZNSt3__1lsB7v160006IcNS_11char_traitsIcEENS_9allocatorIcEEEERNS_13basic_ostreamIT_T0_EES9_RKNS_12basic_stringIS6_S7_T1_EE, symObjAddr: 0xC40, symBinAddr: 0x100001D5C, symSize: 0x4C }
  - { offsetInCU: 0x9670, offset: 0x9670, size: 0x8, addend: 0x0, symName: __ZNSt3__1eqB7v160006ERKNS_21__tree_const_iteratorIiPNS_11__tree_nodeIiPvEElEES7_, symObjAddr: 0xF44, symBinAddr: 0x100002060, symSize: 0x30 }
  - { offsetInCU: 0x96AD, offset: 0x96AD, size: 0x8, addend: 0x0, symName: __ZNSt3__116__pad_and_outputB7v160006IcNS_11char_traitsIcEEEENS_19ostreambuf_iteratorIT_T0_EES6_PKS4_S8_S8_RNS_8ios_baseES4_, symObjAddr: 0x11C8, symBinAddr: 0x1000022E4, symSize: 0x240 }
  - { offsetInCU: 0x977C, offset: 0x977C, size: 0x8, addend: 0x0, symName: __ZNSt3__119__debug_db_insert_cB7v160006INS_12basic_stringIcNS_11char_traitsIcEENS_9allocatorIcEEEEEEvPT_, symObjAddr: 0x1688, symBinAddr: 0x1000027A4, symSize: 0x10 }
  - { offsetInCU: 0x97AD, offset: 0x97AD, size: 0x8, addend: 0x0, symName: __ZNSt3__112__to_addressB7v160006IKcEEPT_S3_, symObjAddr: 0x1754, symBinAddr: 0x100002870, symSize: 0x14 }
  - { offsetInCU: 0x9815, offset: 0x9815, size: 0x8, addend: 0x0, symName: __ZNSt3__19use_facetB7v160006INS_5ctypeIcEEEERKT_RKNS_6localeE, symObjAddr: 0x19D4, symBinAddr: 0x100002AF0, symSize: 0x2C }
  - { offsetInCU: 0x9CE4, offset: 0x9CE4, size: 0x8, addend: 0x0, symName: __ZNSt3__118__constexpr_strlenB7v160006EPKc, symObjAddr: 0x1A6C, symBinAddr: 0x100002B88, symSize: 0x24 }
  - { offsetInCU: 0x9D10, offset: 0x9D10, size: 0x8, addend: 0x0, symName: __ZNSt3__14nextB7v160006INS_21__tree_const_iteratorIiPNS_11__tree_nodeIiPvEElEEEENS_9enable_ifIXsr25__is_cpp17_input_iteratorIT_EE5valueES8_E4typeES8_NS_15iterator_traitsIS8_E15difference_typeE, symObjAddr: 0x2970, symBinAddr: 0x100003A8C, symSize: 0x50 }
  - { offsetInCU: 0x9D53, offset: 0x9D53, size: 0x8, addend: 0x0, symName: __ZNSt3__116__tree_prev_iterB7v160006IPNS_16__tree_node_baseIPvEEPNS_15__tree_end_nodeIS4_EEEET_T0_, symObjAddr: 0x29F8, symBinAddr: 0x100003B14, symSize: 0xA4 }
  - { offsetInCU: 0x9D9F, offset: 0x9D9F, size: 0x8, addend: 0x0, symName: __ZNSt3__110__tree_maxB7v160006IPNS_16__tree_node_baseIPvEEEET_S5_, symObjAddr: 0x2A9C, symBinAddr: 0x100003BB8, symSize: 0x40 }
  - { offsetInCU: 0x9DD4, offset: 0x9DD4, size: 0x8, addend: 0x0, symName: __ZNSt3__120__tree_is_left_childB7v160006IPNS_16__tree_node_baseIPvEEEEbT_, symObjAddr: 0x2ADC, symBinAddr: 0x100003BF8, symSize: 0x2C }
  - { offsetInCU: 0x9E09, offset: 0x9E09, size: 0x8, addend: 0x0, symName: __ZNSt3__121__convert_to_integralB7v160006El, symObjAddr: 0x2BBC, symBinAddr: 0x100003CD8, symSize: 0x14 }
  - { offsetInCU: 0x9E35, offset: 0x9E35, size: 0x8, addend: 0x0, symName: __ZNSt3__19__advanceB7v160006INS_21__tree_const_iteratorIiPNS_11__tree_nodeIiPvEElEEEEvRT_NS_15iterator_traitsIS7_E15difference_typeENS_26bidirectional_iterator_tagE, symObjAddr: 0x2BD0, symBinAddr: 0x100003CEC, symSize: 0xA4 }
  - { offsetInCU: 0x9E9C, offset: 0x9E9C, size: 0x8, addend: 0x0, symName: __ZNSt3__117__libcpp_allocateB7v160006Emm, symObjAddr: 0x2EC8, symBinAddr: 0x100003FE4, symSize: 0x28 }
  - { offsetInCU: 0x9ED9, offset: 0x9ED9, size: 0x8, addend: 0x0, symName: __ZNSt3__121__libcpp_operator_newB7v160006IJmEEEPvDpT_, symObjAddr: 0x2F04, symBinAddr: 0x100004020, symSize: 0x24 }
  - { offsetInCU: 0x9F12, offset: 0x9F12, size: 0x8, addend: 0x0, symName: __ZNSt3__127__tree_balance_after_insertB7v160006IPNS_16__tree_node_baseIPvEEEEvT_S5_, symObjAddr: 0x3110, symBinAddr: 0x10000422C, symSize: 0x27C }
  - { offsetInCU: 0x9F8E, offset: 0x9F8E, size: 0x8, addend: 0x0, symName: __ZNSt3__118__tree_left_rotateB7v160006IPNS_16__tree_node_baseIPvEEEEvT_, symObjAddr: 0x33B4, symBinAddr: 0x1000044D0, symSize: 0xD8 }
  - { offsetInCU: 0x9FD0, offset: 0x9FD0, size: 0x8, addend: 0x0, symName: __ZNSt3__119__tree_right_rotateB7v160006IPNS_16__tree_node_baseIPvEEEEvT_, symObjAddr: 0x348C, symBinAddr: 0x1000045A8, symSize: 0xCC }
  - { offsetInCU: 0xA012, offset: 0xA012, size: 0x8, addend: 0x0, symName: __ZNSt3__119__libcpp_deallocateB7v160006EPvmm, symObjAddr: 0x37A8, symBinAddr: 0x1000048C4, symSize: 0x30 }
  - { offsetInCU: 0xA05A, offset: 0xA05A, size: 0x8, addend: 0x0, symName: __ZNSt3__127__do_deallocate_handle_sizeB7v160006IJEEEvPvmDpT_, symObjAddr: 0x37D8, symBinAddr: 0x1000048F4, symSize: 0x28 }
  - { offsetInCU: 0xA098, offset: 0xA098, size: 0x8, addend: 0x0, symName: __ZNSt3__124__libcpp_operator_deleteB7v160006IJPvEEEvDpT_, symObjAddr: 0x3800, symBinAddr: 0x10000491C, symSize: 0x24 }
  - { offsetInCU: 0xA0CD, offset: 0xA0CD, size: 0x8, addend: 0x0, symName: __ZNSt3__116__tree_next_iterB7v160006IPNS_15__tree_end_nodeIPNS_16__tree_node_baseIPvEEEES5_EET_T0_, symObjAddr: 0x3CA4, symBinAddr: 0x100004DC0, symSize: 0x80 }
  - { offsetInCU: 0xA10B, offset: 0xA10B, size: 0x8, addend: 0x0, symName: __ZNSt3__110__tree_minB7v160006IPNS_16__tree_node_baseIPvEEEET_S5_, symObjAddr: 0x3D24, symBinAddr: 0x100004E40, symSize: 0x40 }
  - { offsetInCU: 0xA140, offset: 0xA140, size: 0x8, addend: 0x0, symName: __ZNSt3__1neB7v160006ERKNS_15__tree_iteratorIiPNS_11__tree_nodeIiPvEElEES7_, symObjAddr: 0x3F00, symBinAddr: 0x10000501C, symSize: 0x34 }
  - { offsetInCU: 0xA17D, offset: 0xA17D, size: 0x8, addend: 0x0, symName: __ZNSt3__1eqB7v160006ERKNS_15__tree_iteratorIiPNS_11__tree_nodeIiPvEElEES7_, symObjAddr: 0x3F5C, symBinAddr: 0x100005078, symSize: 0x30 }
  - { offsetInCU: 0xA1BA, offset: 0xA1BA, size: 0x8, addend: 0x0, symName: __ZNSt3__113__tree_removeB7v160006IPNS_16__tree_node_baseIPvEEEEvT_S5_, symObjAddr: 0x4128, symBinAddr: 0x100005244, symSize: 0x6E0 }
  - { offsetInCU: 0xA238, offset: 0xA238, size: 0x8, addend: 0x0, symName: __ZNSt3__111__tree_nextB7v160006IPNS_16__tree_node_baseIPvEEEET_S5_, symObjAddr: 0x4808, symBinAddr: 0x100005924, symSize: 0x80 }
  - { offsetInCU: 0xA2A4, offset: 0xA2A4, size: 0x8, addend: 0x0, symName: __ZNSt3__116forward_as_tupleB7v160006IJNS_12basic_stringIcNS_11char_traitsIcEENS_9allocatorIcEEEEEEENS_5tupleIJDpOT_EEESA_, symObjAddr: 0x4FC8, symBinAddr: 0x1000060E4, symSize: 0x2C }
  - { offsetInCU: 0xA2DD, offset: 0xA2DD, size: 0x8, addend: 0x0, symName: __ZNSt3__116forward_as_tupleB7v160006IJEEENS_5tupleIJDpOT_EEES4_, symObjAddr: 0x4FF4, symBinAddr: 0x100006110, symSize: 0x4 }
  - { offsetInCU: 0xA301, offset: 0xA301, size: 0x8, addend: 0x0, symName: __ZNSt3__1ltB7v160006IcNS_11char_traitsIcEENS_9allocatorIcEEEEbRKNS_12basic_stringIT_T0_T1_EESB_, symObjAddr: 0x5600, symBinAddr: 0x10000671C, symSize: 0x38 }
  - { offsetInCU: 0xA37D, offset: 0xA37D, size: 0x8, addend: 0x0, symName: __ZNSt3__13minB7v160006ImEERKT_S3_S3_, symObjAddr: 0x58F0, symBinAddr: 0x100006A0C, symSize: 0x2C }
  - { offsetInCU: 0xA3C0, offset: 0xA3C0, size: 0x8, addend: 0x0, symName: __ZNSt3__118__constexpr_memcmpB7v160006IcEEiPKT_S3_m, symObjAddr: 0x5978, symBinAddr: 0x100006A94, symSize: 0x34 }
  - { offsetInCU: 0xA411, offset: 0xA411, size: 0x8, addend: 0x0, symName: __ZNSt3__13minB7v160006ImNS_6__lessImmEEEERKT_S5_S5_T0_, symObjAddr: 0x59AC, symBinAddr: 0x100006AC8, symSize: 0x54 }
  - { offsetInCU: 0xA4CF, offset: 0xA4CF, size: 0x8, addend: 0x0, symName: __ZNSt3__13getB7v160006ILm0EJONS_12basic_stringIcNS_11char_traitsIcEENS_9allocatorIcEEEEEEERNS_13tuple_elementIXT_ENS_5tupleIJDpT0_EEEE4typeERSC_, symObjAddr: 0x5EC4, symBinAddr: 0x100006FE0, symSize: 0x24 }
  - { offsetInCU: 0xA512, offset: 0xA512, size: 0x8, addend: 0x0, symName: __ZNSt3__115__debug_db_swapB7v160006INS_12basic_stringIcNS_11char_traitsIcEENS_9allocatorIcEEEEEEvPT_S8_, symObjAddr: 0x5FF8, symBinAddr: 0x100007114, symSize: 0x14 }
  - { offsetInCU: 0xA5A8, offset: 0xA5A8, size: 0x8, addend: 0x0, symName: __ZNSt3__1neB7v160006ERKNS_15__tree_iteratorINS_12__value_typeINS_12basic_stringIcNS_11char_traitsIcEENS_9allocatorIcEEEEiEEPNS_11__tree_nodeIS8_PvEElEESF_, symObjAddr: 0x64FC, symBinAddr: 0x100007618, symSize: 0x34 }
  - { offsetInCU: 0xA5E5, offset: 0xA5E5, size: 0x8, addend: 0x0, symName: __ZNSt3__1eqB7v160006ERKNS_15__tree_iteratorINS_12__value_typeINS_12basic_stringIcNS_11char_traitsIcEENS_9allocatorIcEEEEiEEPNS_11__tree_nodeIS8_PvEElEESF_, symObjAddr: 0x6530, symBinAddr: 0x10000764C, symSize: 0x30 }
  - { offsetInCU: 0xA799, offset: 0xA799, size: 0x8, addend: 0x0, symName: __ZSt28__throw_bad_array_new_lengthB7v160006v, symObjAddr: 0x2E94, symBinAddr: 0x100003FB0, symSize: 0x34 }
  - { offsetInCU: 0xD2D3, offset: 0xD2D3, size: 0x8, addend: 0x0, symName: __Z9printKeysRNSt3__13setIiNS_4lessIiEENS_9allocatorIiEEEE, symObjAddr: 0x0, symBinAddr: 0x10000111C, symSize: 0x88 }
  - { offsetInCU: 0xD37D, offset: 0xD37D, size: 0x8, addend: 0x0, symName: __ZNSt3__13setIiNS_4lessIiEENS_9allocatorIiEEE5beginB7v160006Ev, symObjAddr: 0x88, symBinAddr: 0x1000011A4, symSize: 0x38 }
  - { offsetInCU: 0xD3A3, offset: 0xD3A3, size: 0x8, addend: 0x0, symName: __ZNSt3__13setIiNS_4lessIiEENS_9allocatorIiEEE3endB7v160006Ev, symObjAddr: 0xF4, symBinAddr: 0x100001210, symSize: 0x38 }
  - { offsetInCU: 0xD3C9, offset: 0xD3C9, size: 0x8, addend: 0x0, symName: __ZNKSt3__121__tree_const_iteratorIiPNS_11__tree_nodeIiPvEElEdeB7v160006Ev, symObjAddr: 0x174, symBinAddr: 0x100001290, symSize: 0x28 }
  - { offsetInCU: 0xD3EF, offset: 0xD3EF, size: 0x8, addend: 0x0, symName: __ZNSt3__121__tree_const_iteratorIiPNS_11__tree_nodeIiPvEElEppB7v160006Ei, symObjAddr: 0x19C, symBinAddr: 0x1000012B8, symSize: 0x34 }
  - { offsetInCU: 0xD430, offset: 0xD430, size: 0x8, addend: 0x0, symName: _main, symObjAddr: 0x1D0, symBinAddr: 0x1000012EC, symSize: 0x68C }
  - { offsetInCU: 0xD52E, offset: 0xD52E, size: 0x8, addend: 0x0, symName: __ZNSt3__13setIiNS_4lessIiEENS_9allocatorIiEEEC1B7v160006ESt16initializer_listIiERKS2_, symObjAddr: 0x85C, symBinAddr: 0x100001978, symSize: 0x44 }
  - { offsetInCU: 0xD576, offset: 0xD576, size: 0x8, addend: 0x0, symName: __ZNSt3__13setIiNS_4lessIiEENS_9allocatorIiEEE6insertB7v160006EOi, symObjAddr: 0x8A0, symBinAddr: 0x1000019BC, symSize: 0x4C }
  - { offsetInCU: 0xD5AB, offset: 0xD5AB, size: 0x8, addend: 0x0, symName: __ZNSt3__121__tree_const_iteratorIiPNS_11__tree_nodeIiPvEElEppB7v160006Ev, symObjAddr: 0x8EC, symBinAddr: 0x100001A08, symSize: 0x38 }
  - { offsetInCU: 0xD5D1, offset: 0xD5D1, size: 0x8, addend: 0x0, symName: __ZNSt3__113basic_ostreamIcNS_11char_traitsIcEEElsB7v160006EPFRS3_S4_E, symObjAddr: 0x924, symBinAddr: 0x100001A40, symSize: 0x2C }
  - { offsetInCU: 0xD605, offset: 0xD605, size: 0x8, addend: 0x0, symName: __ZNSt3__13setIiNS_4lessIiEENS_9allocatorIiEEE4findB7v160006ERKi, symObjAddr: 0x9A8, symBinAddr: 0x100001AC4, symSize: 0x40 }
  - { offsetInCU: 0xD63A, offset: 0xD63A, size: 0x8, addend: 0x0, symName: __ZNSt3__13setIiNS_4lessIiEENS_9allocatorIiEEE5eraseB7v160006ENS_21__tree_const_iteratorIiPNS_11__tree_nodeIiPvEElEE, symObjAddr: 0x9E8, symBinAddr: 0x100001B04, symSize: 0x48 }
  - { offsetInCU: 0xD66F, offset: 0xD66F, size: 0x8, addend: 0x0, symName: __ZNSt3__121__tree_const_iteratorIiPNS_11__tree_nodeIiPvEElEmmB7v160006Ei, symObjAddr: 0xA30, symBinAddr: 0x100001B4C, symSize: 0x34 }
  - { offsetInCU: 0xD6B0, offset: 0xD6B0, size: 0x8, addend: 0x0, symName: __ZNSt3__13mapINS_12basic_stringIcNS_11char_traitsIcEENS_9allocatorIcEEEEiNS_4lessIS6_EENS4_INS_4pairIKS6_iEEEEEC1B7v160006Ev, symObjAddr: 0xA64, symBinAddr: 0x100001B80, symSize: 0x2C }
  - { offsetInCU: 0xD6DA, offset: 0xD6DA, size: 0x8, addend: 0x0, symName: __ZNSt3__13mapINS_12basic_stringIcNS_11char_traitsIcEENS_9allocatorIcEEEEiNS_4lessIS6_EENS4_INS_4pairIKS6_iEEEEEixEOS6_, symObjAddr: 0xA90, symBinAddr: 0x100001BAC, symSize: 0x80 }
  - { offsetInCU: 0xD716, offset: 0xD716, size: 0x8, addend: 0x0, symName: __ZNSt3__112basic_stringIcNS_11char_traitsIcEENS_9allocatorIcEEEC1B7v160006IDnEEPKc, symObjAddr: 0xB10, symBinAddr: 0x100001C2C, symSize: 0x34 }
  - { offsetInCU: 0xD754, offset: 0xD754, size: 0x8, addend: 0x0, symName: __ZNSt3__13mapINS_12basic_stringIcNS_11char_traitsIcEENS_9allocatorIcEEEEiNS_4lessIS6_EENS4_INS_4pairIKS6_iEEEEE5beginB7v160006Ev, symObjAddr: 0xB44, symBinAddr: 0x100001C60, symSize: 0x38 }
  - { offsetInCU: 0xD77A, offset: 0xD77A, size: 0x8, addend: 0x0, symName: __ZNSt3__13mapINS_12basic_stringIcNS_11char_traitsIcEENS_9allocatorIcEEEEiNS_4lessIS6_EENS4_INS_4pairIKS6_iEEEEE3endB7v160006Ev, symObjAddr: 0xB7C, symBinAddr: 0x100001C98, symSize: 0x38 }
  - { offsetInCU: 0xD7A0, offset: 0xD7A0, size: 0x8, addend: 0x0, symName: __ZNKSt3__114__map_iteratorINS_15__tree_iteratorINS_12__value_typeINS_12basic_stringIcNS_11char_traitsIcEENS_9allocatorIcEEEEiEEPNS_11__tree_nodeIS9_PvEElEEEdeB7v160006Ev, symObjAddr: 0xBE4, symBinAddr: 0x100001D00, symSize: 0x28 }
  - { offsetInCU: 0xD7C6, offset: 0xD7C6, size: 0x8, addend: 0x0, symName: __ZNSt3__14pairIKNS_12basic_stringIcNS_11char_traitsIcEENS_9allocatorIcEEEEiEC1ERKS8_, symObjAddr: 0xC0C, symBinAddr: 0x100001D28, symSize: 0x34 }
  - { offsetInCU: 0xD7FA, offset: 0xD7FA, size: 0x8, addend: 0x0, symName: __ZNSt3__14pairIKNS_12basic_stringIcNS_11char_traitsIcEENS_9allocatorIcEEEEiED1Ev, symObjAddr: 0xC8C, symBinAddr: 0x100001DA8, symSize: 0x2C }
  - { offsetInCU: 0xD826, offset: 0xD826, size: 0x8, addend: 0x0, symName: __ZNSt3__114__map_iteratorINS_15__tree_iteratorINS_12__value_typeINS_12basic_stringIcNS_11char_traitsIcEENS_9allocatorIcEEEEiEEPNS_11__tree_nodeIS9_PvEElEEEppB7v160006Ev, symObjAddr: 0xCB8, symBinAddr: 0x100001DD4, symSize: 0x2C }
  - { offsetInCU: 0xD84C, offset: 0xD84C, size: 0x8, addend: 0x0, symName: __ZNSt3__13mapINS_12basic_stringIcNS_11char_traitsIcEENS_9allocatorIcEEEEiNS_4lessIS6_EENS4_INS_4pairIKS6_iEEEEED1B7v160006Ev, symObjAddr: 0xCE4, symBinAddr: 0x100001E00, symSize: 0x2C }
  - { offsetInCU: 0xD876, offset: 0xD876, size: 0x8, addend: 0x0, symName: __ZNSt3__13setIiNS_4lessIiEENS_9allocatorIiEEED1B7v160006Ev, symObjAddr: 0xD10, symBinAddr: 0x100001E2C, symSize: 0x2C }
  - { offsetInCU: 0xD8A0, offset: 0xD8A0, size: 0x8, addend: 0x0, symName: __ZNSt3__14pairIKNS_12basic_stringIcNS_11char_traitsIcEENS_9allocatorIcEEEEiEC2ERKS8_, symObjAddr: 0xD3C, symBinAddr: 0x100001E58, symSize: 0x40 }
  - { offsetInCU: 0xD8D4, offset: 0xD8D4, size: 0x8, addend: 0x0, symName: __ZNSt3__14pairIKNS_12basic_stringIcNS_11char_traitsIcEENS_9allocatorIcEEEEiED2Ev, symObjAddr: 0xD7C, symBinAddr: 0x100001E98, symSize: 0x2C }
  - { offsetInCU: 0xD900, offset: 0xD900, size: 0x8, addend: 0x0, symName: __ZNSt3__16__treeIiNS_4lessIiEENS_9allocatorIiEEE5beginB7v160006Ev, symObjAddr: 0xDA8, symBinAddr: 0x100001EC4, symSize: 0x34 }
  - { offsetInCU: 0xD926, offset: 0xD926, size: 0x8, addend: 0x0, symName: __ZNSt3__121__tree_const_iteratorIiPNS_11__tree_nodeIiPvEElEC1B7v160006ENS_15__tree_iteratorIiS4_lEE, symObjAddr: 0xDDC, symBinAddr: 0x100001EF8, symSize: 0x34 }
  - { offsetInCU: 0xD95F, offset: 0xD95F, size: 0x8, addend: 0x0, symName: __ZNSt3__16__treeIiNS_4lessIiEENS_9allocatorIiEEE12__begin_nodeB7v160006Ev, symObjAddr: 0xE10, symBinAddr: 0x100001F2C, symSize: 0x14 }
  - { offsetInCU: 0xD985, offset: 0xD985, size: 0x8, addend: 0x0, symName: __ZNSt3__115__tree_iteratorIiPNS_11__tree_nodeIiPvEElEC1B7v160006EPNS_15__tree_end_nodeIPNS_16__tree_node_baseIS2_EEEE, symObjAddr: 0xE24, symBinAddr: 0x100001F40, symSize: 0x34 }
  - { offsetInCU: 0xD9BE, offset: 0xD9BE, size: 0x8, addend: 0x0, symName: __ZNSt3__115__tree_iteratorIiPNS_11__tree_nodeIiPvEElEC2B7v160006EPNS_15__tree_end_nodeIPNS_16__tree_node_baseIS2_EEEE, symObjAddr: 0xE58, symBinAddr: 0x100001F74, symSize: 0x20 }
  - { offsetInCU: 0xD9F7, offset: 0xD9F7, size: 0x8, addend: 0x0, symName: __ZNSt3__121__tree_const_iteratorIiPNS_11__tree_nodeIiPvEElEC2B7v160006ENS_15__tree_iteratorIiS4_lEE, symObjAddr: 0xE78, symBinAddr: 0x100001F94, symSize: 0x20 }
  - { offsetInCU: 0xDA30, offset: 0xDA30, size: 0x8, addend: 0x0, symName: __ZNSt3__16__treeIiNS_4lessIiEENS_9allocatorIiEEE3endB7v160006Ev, symObjAddr: 0xE98, symBinAddr: 0x100001FB4, symSize: 0x34 }
  - { offsetInCU: 0xDA56, offset: 0xDA56, size: 0x8, addend: 0x0, symName: __ZNSt3__16__treeIiNS_4lessIiEENS_9allocatorIiEEE10__end_nodeB7v160006Ev, symObjAddr: 0xECC, symBinAddr: 0x100001FE8, symSize: 0x2C }
  - { offsetInCU: 0xDA7C, offset: 0xDA7C, size: 0x8, addend: 0x0, symName: __ZNSt3__114pointer_traitsIPNS_15__tree_end_nodeIPNS_16__tree_node_baseIPvEEEEE10pointer_toB7v160006ERS6_, symObjAddr: 0xEF8, symBinAddr: 0x100002014, symSize: 0x14 }
  - { offsetInCU: 0xDA9F, offset: 0xDA9F, size: 0x8, addend: 0x0, symName: __ZNSt3__117__compressed_pairINS_15__tree_end_nodeIPNS_16__tree_node_baseIPvEEEENS_9allocatorINS_11__tree_nodeIiS3_EEEEE5firstB7v160006Ev, symObjAddr: 0xF0C, symBinAddr: 0x100002028, symSize: 0x24 }
  - { offsetInCU: 0xDAC5, offset: 0xDAC5, size: 0x8, addend: 0x0, symName: __ZNSt3__122__compressed_pair_elemINS_15__tree_end_nodeIPNS_16__tree_node_baseIPvEEEELi0ELb0EE5__getB7v160006Ev, symObjAddr: 0xF30, symBinAddr: 0x10000204C, symSize: 0x14 }
  - { offsetInCU: 0xDAEB, offset: 0xDAEB, size: 0x8, addend: 0x0, symName: __ZNKSt3__121__tree_const_iteratorIiPNS_11__tree_nodeIiPvEElE8__get_npB7v160006Ev, symObjAddr: 0xF74, symBinAddr: 0x100002090, symSize: 0x18 }
  - { offsetInCU: 0xDB11, offset: 0xDB11, size: 0x8, addend: 0x0, symName: __ZNSt3__111char_traitsIcE6lengthEPKc, symObjAddr: 0x1178, symBinAddr: 0x100002294, symSize: 0x34 }
  - { offsetInCU: 0xDB52, offset: 0xDB52, size: 0x8, addend: 0x0, symName: __ZNKSt3__113basic_ostreamIcNS_11char_traitsIcEEE6sentrycvbB7v160006Ev, symObjAddr: 0x11AC, symBinAddr: 0x1000022C8, symSize: 0x1C }
  - { offsetInCU: 0xDB78, offset: 0xDB78, size: 0x8, addend: 0x0, symName: __ZNSt3__119ostreambuf_iteratorIcNS_11char_traitsIcEEEC1B7v160006ERNS_13basic_ostreamIcS2_EE, symObjAddr: 0x1408, symBinAddr: 0x100002524, symSize: 0x34 }
  - { offsetInCU: 0xDBB0, offset: 0xDBB0, size: 0x8, addend: 0x0, symName: __ZNKSt3__18ios_base5flagsB7v160006Ev, symObjAddr: 0x143C, symBinAddr: 0x100002558, symSize: 0x18 }
  - { offsetInCU: 0xDBD8, offset: 0xDBD8, size: 0x8, addend: 0x0, symName: __ZNKSt3__19basic_iosIcNS_11char_traitsIcEEE4fillB7v160006Ev, symObjAddr: 0x1454, symBinAddr: 0x100002570, symSize: 0x64 }
  - { offsetInCU: 0xDC00, offset: 0xDC00, size: 0x8, addend: 0x0, symName: __ZNKSt3__119ostreambuf_iteratorIcNS_11char_traitsIcEEE6failedB7v160006Ev, symObjAddr: 0x14B8, symBinAddr: 0x1000025D4, symSize: 0x24 }
  - { offsetInCU: 0xDC26, offset: 0xDC26, size: 0x8, addend: 0x0, symName: __ZNSt3__19basic_iosIcNS_11char_traitsIcEEE8setstateB7v160006Ej, symObjAddr: 0x14DC, symBinAddr: 0x1000025F8, symSize: 0x2C }
  - { offsetInCU: 0xDC5B, offset: 0xDC5B, size: 0x8, addend: 0x0, symName: __ZNKSt3__18ios_base5widthB7v160006Ev, symObjAddr: 0x1514, symBinAddr: 0x100002630, symSize: 0x18 }
  - { offsetInCU: 0xDC83, offset: 0xDC83, size: 0x8, addend: 0x0, symName: __ZNSt3__115basic_streambufIcNS_11char_traitsIcEEE5sputnB7v160006EPKcl, symObjAddr: 0x152C, symBinAddr: 0x100002648, symSize: 0x3C }
  - { offsetInCU: 0xDCC5, offset: 0xDCC5, size: 0x8, addend: 0x0, symName: __ZNSt3__112basic_stringIcNS_11char_traitsIcEENS_9allocatorIcEEEC1B7v160006Emc, symObjAddr: 0x1568, symBinAddr: 0x100002684, symSize: 0x3C }
  - { offsetInCU: 0xDD0D, offset: 0xDD0D, size: 0x8, addend: 0x0, symName: __ZNKSt3__112basic_stringIcNS_11char_traitsIcEENS_9allocatorIcEEE4dataB7v160006Ev, symObjAddr: 0x15A4, symBinAddr: 0x1000026C0, symSize: 0x28 }
  - { offsetInCU: 0xDD33, offset: 0xDD33, size: 0x8, addend: 0x0, symName: __ZNSt3__18ios_base5widthB7v160006El, symObjAddr: 0x15CC, symBinAddr: 0x1000026E8, symSize: 0x2C }
  - { offsetInCU: 0xDD79, offset: 0xDD79, size: 0x8, addend: 0x0, symName: __ZNSt3__112basic_stringIcNS_11char_traitsIcEENS_9allocatorIcEEEC2B7v160006Emc, symObjAddr: 0x15F8, symBinAddr: 0x100002714, symSize: 0x54 }
  - { offsetInCU: 0xDDC6, offset: 0xDDC6, size: 0x8, addend: 0x0, symName: __ZNSt3__117__compressed_pairINS_12basic_stringIcNS_11char_traitsIcEENS_9allocatorIcEEE5__repES5_EC1B7v160006INS_18__default_init_tagESA_EEOT_OT0_, symObjAddr: 0x164C, symBinAddr: 0x100002768, symSize: 0x3C }
  - { offsetInCU: 0xDE1E, offset: 0xDE1E, size: 0x8, addend: 0x0, symName: __ZNSt3__117__compressed_pairINS_12basic_stringIcNS_11char_traitsIcEENS_9allocatorIcEEE5__repES5_EC2B7v160006INS_18__default_init_tagESA_EEOT_OT0_, symObjAddr: 0x1698, symBinAddr: 0x1000027B4, symSize: 0x3C }
  - { offsetInCU: 0xDE76, offset: 0xDE76, size: 0x8, addend: 0x0, symName: __ZNSt3__122__compressed_pair_elemINS_12basic_stringIcNS_11char_traitsIcEENS_9allocatorIcEEE5__repELi0ELb0EEC2B7v160006ENS_18__default_init_tagE, symObjAddr: 0x16D4, symBinAddr: 0x1000027F0, symSize: 0x14 }
  - { offsetInCU: 0xDEAA, offset: 0xDEAA, size: 0x8, addend: 0x0, symName: __ZNSt3__122__compressed_pair_elemINS_9allocatorIcEELi1ELb1EEC2B7v160006ENS_18__default_init_tagE, symObjAddr: 0x16E8, symBinAddr: 0x100002804, symSize: 0x2C }
  - { offsetInCU: 0xDEDE, offset: 0xDEDE, size: 0x8, addend: 0x0, symName: __ZNSt3__19allocatorIcEC2B7v160006Ev, symObjAddr: 0x1714, symBinAddr: 0x100002830, symSize: 0x2C }
  - { offsetInCU: 0xDF08, offset: 0xDF08, size: 0x8, addend: 0x0, symName: __ZNSt3__116__non_trivial_ifILb1ENS_9allocatorIcEEEC2B7v160006Ev, symObjAddr: 0x1740, symBinAddr: 0x10000285C, symSize: 0x14 }
  - { offsetInCU: 0xDF32, offset: 0xDF32, size: 0x8, addend: 0x0, symName: __ZNKSt3__112basic_stringIcNS_11char_traitsIcEENS_9allocatorIcEEE13__get_pointerB7v160006Ev, symObjAddr: 0x1768, symBinAddr: 0x100002884, symSize: 0x54 }
  - { offsetInCU: 0xDF58, offset: 0xDF58, size: 0x8, addend: 0x0, symName: __ZNKSt3__112basic_stringIcNS_11char_traitsIcEENS_9allocatorIcEEE9__is_longB7v160006Ev, symObjAddr: 0x17BC, symBinAddr: 0x1000028D8, symSize: 0x38 }
  - { offsetInCU: 0xDF7E, offset: 0xDF7E, size: 0x8, addend: 0x0, symName: __ZNKSt3__112basic_stringIcNS_11char_traitsIcEENS_9allocatorIcEEE18__get_long_pointerB7v160006Ev, symObjAddr: 0x17F4, symBinAddr: 0x100002910, symSize: 0x28 }
  - { offsetInCU: 0xDFA4, offset: 0xDFA4, size: 0x8, addend: 0x0, symName: __ZNKSt3__112basic_stringIcNS_11char_traitsIcEENS_9allocatorIcEEE19__get_short_pointerB7v160006Ev, symObjAddr: 0x181C, symBinAddr: 0x100002938, symSize: 0x28 }
  - { offsetInCU: 0xDFCA, offset: 0xDFCA, size: 0x8, addend: 0x0, symName: __ZNKSt3__117__compressed_pairINS_12basic_stringIcNS_11char_traitsIcEENS_9allocatorIcEEE5__repES5_E5firstB7v160006Ev, symObjAddr: 0x1844, symBinAddr: 0x100002960, symSize: 0x24 }
  - { offsetInCU: 0xDFF0, offset: 0xDFF0, size: 0x8, addend: 0x0, symName: __ZNKSt3__122__compressed_pair_elemINS_12basic_stringIcNS_11char_traitsIcEENS_9allocatorIcEEE5__repELi0ELb0EE5__getB7v160006Ev, symObjAddr: 0x1868, symBinAddr: 0x100002984, symSize: 0x14 }
  - { offsetInCU: 0xE016, offset: 0xE016, size: 0x8, addend: 0x0, symName: __ZNSt3__114pointer_traitsIPKcE10pointer_toB7v160006ERS1_, symObjAddr: 0x187C, symBinAddr: 0x100002998, symSize: 0x14 }
  - { offsetInCU: 0xE039, offset: 0xE039, size: 0x8, addend: 0x0, symName: __ZNSt3__119ostreambuf_iteratorIcNS_11char_traitsIcEEEC2B7v160006ERNS_13basic_ostreamIcS2_EE, symObjAddr: 0x1890, symBinAddr: 0x1000029AC, symSize: 0x54 }
  - { offsetInCU: 0xE071, offset: 0xE071, size: 0x8, addend: 0x0, symName: __ZNKSt3__19basic_iosIcNS_11char_traitsIcEEE5rdbufB7v160006Ev, symObjAddr: 0x18E4, symBinAddr: 0x100002A00, symSize: 0x24 }
  - { offsetInCU: 0xE099, offset: 0xE099, size: 0x8, addend: 0x0, symName: __ZNKSt3__18ios_base5rdbufB7v160006Ev, symObjAddr: 0x1908, symBinAddr: 0x100002A24, symSize: 0x18 }
  - { offsetInCU: 0xE0BF, offset: 0xE0BF, size: 0x8, addend: 0x0, symName: __ZNSt3__111char_traitsIcE11eq_int_typeEii, symObjAddr: 0x1920, symBinAddr: 0x100002A3C, symSize: 0x28 }
  - { offsetInCU: 0xE0F0, offset: 0xE0F0, size: 0x8, addend: 0x0, symName: __ZNSt3__111char_traitsIcE3eofEv, symObjAddr: 0x1948, symBinAddr: 0x100002A64, symSize: 0x8 }
  - { offsetInCU: 0xE104, offset: 0xE104, size: 0x8, addend: 0x0, symName: __ZNKSt3__19basic_iosIcNS_11char_traitsIcEEE5widenB7v160006Ec, symObjAddr: 0x1950, symBinAddr: 0x100002A6C, symSize: 0x84 }
  - { offsetInCU: 0xE172, offset: 0xE172, size: 0x8, addend: 0x0, symName: __ZNKSt3__15ctypeIcE5widenB7v160006Ec, symObjAddr: 0x1A00, symBinAddr: 0x100002B1C, symSize: 0x38 }
  - { offsetInCU: 0xE1A7, offset: 0xE1A7, size: 0x8, addend: 0x0, symName: __ZNSt3__18ios_base8setstateB7v160006Ej, symObjAddr: 0x1A38, symBinAddr: 0x100002B54, symSize: 0x34 }
  - { offsetInCU: 0xE1DE, offset: 0xE1DE, size: 0x8, addend: 0x0, symName: __ZNSt3__13setIiNS_4lessIiEENS_9allocatorIiEEEC2B7v160006ESt16initializer_listIiERKS2_, symObjAddr: 0x1A90, symBinAddr: 0x100002BAC, symSize: 0x94 }
  - { offsetInCU: 0xE226, offset: 0xE226, size: 0x8, addend: 0x0, symName: __ZNSt3__16__treeIiNS_4lessIiEENS_9allocatorIiEEEC1ERKS2_, symObjAddr: 0x1B24, symBinAddr: 0x100002C40, symSize: 0x34 }
  - { offsetInCU: 0xE261, offset: 0xE261, size: 0x8, addend: 0x0, symName: __ZNSt3__13setIiNS_4lessIiEENS_9allocatorIiEEE6insertB7v160006IPKiEEvT_S9_, symObjAddr: 0x1B58, symBinAddr: 0x100002C74, symSize: 0x80 }
  - { offsetInCU: 0xE2CB, offset: 0xE2CB, size: 0x8, addend: 0x0, symName: __ZNKSt16initializer_listIiE5beginB7v160006Ev, symObjAddr: 0x1BD8, symBinAddr: 0x100002CF4, symSize: 0x18 }
  - { offsetInCU: 0xE2F1, offset: 0xE2F1, size: 0x8, addend: 0x0, symName: __ZNKSt16initializer_listIiE3endB7v160006Ev, symObjAddr: 0x1BF0, symBinAddr: 0x100002D0C, symSize: 0x20 }
  - { offsetInCU: 0xE317, offset: 0xE317, size: 0x8, addend: 0x0, symName: __ZNSt3__16__treeIiNS_4lessIiEENS_9allocatorIiEEED1Ev, symObjAddr: 0x1C10, symBinAddr: 0x100002D2C, symSize: 0x2C }
  - { offsetInCU: 0xE343, offset: 0xE343, size: 0x8, addend: 0x0, symName: __ZNSt3__16__treeIiNS_4lessIiEENS_9allocatorIiEEEC2ERKS2_, symObjAddr: 0x1C3C, symBinAddr: 0x100002D58, symSize: 0x7C }
  - { offsetInCU: 0xE37E, offset: 0xE37E, size: 0x8, addend: 0x0, symName: __ZNSt3__117__compressed_pairINS_15__tree_end_nodeIPNS_16__tree_node_baseIPvEEEENS_9allocatorINS_11__tree_nodeIiS3_EEEEEC1B7v160006ILb1EvEEv, symObjAddr: 0x1CB8, symBinAddr: 0x100002DD4, symSize: 0x2C }
  - { offsetInCU: 0xE3B8, offset: 0xE3B8, size: 0x8, addend: 0x0, symName: __ZNSt3__117__compressed_pairImNS_4lessIiEEEC1B7v160006IiRKS2_EEOT_OT0_, symObjAddr: 0x1CE4, symBinAddr: 0x100002E00, symSize: 0x3C }
  - { offsetInCU: 0xE410, offset: 0xE410, size: 0x8, addend: 0x0, symName: __ZNSt3__117__compressed_pairINS_15__tree_end_nodeIPNS_16__tree_node_baseIPvEEEENS_9allocatorINS_11__tree_nodeIiS3_EEEEEC2B7v160006ILb1EvEEv, symObjAddr: 0x1D20, symBinAddr: 0x100002E3C, symSize: 0x34 }
  - { offsetInCU: 0xE445, offset: 0xE445, size: 0x8, addend: 0x0, symName: __ZNSt3__122__compressed_pair_elemINS_15__tree_end_nodeIPNS_16__tree_node_baseIPvEEEELi0ELb0EEC2B7v160006ENS_16__value_init_tagE, symObjAddr: 0x1D54, symBinAddr: 0x100002E70, symSize: 0x2C }
  - { offsetInCU: 0xE479, offset: 0xE479, size: 0x8, addend: 0x0, symName: __ZNSt3__122__compressed_pair_elemINS_9allocatorINS_11__tree_nodeIiPvEEEELi1ELb1EEC2B7v160006ENS_16__value_init_tagE, symObjAddr: 0x1D80, symBinAddr: 0x100002E9C, symSize: 0x2C }
  - { offsetInCU: 0xE4AD, offset: 0xE4AD, size: 0x8, addend: 0x0, symName: __ZNSt3__115__tree_end_nodeIPNS_16__tree_node_baseIPvEEEC1B7v160006Ev, symObjAddr: 0x1DAC, symBinAddr: 0x100002EC8, symSize: 0x2C }
  - { offsetInCU: 0xE4D7, offset: 0xE4D7, size: 0x8, addend: 0x0, symName: __ZNSt3__115__tree_end_nodeIPNS_16__tree_node_baseIPvEEEC2B7v160006Ev, symObjAddr: 0x1DD8, symBinAddr: 0x100002EF4, symSize: 0x18 }
  - { offsetInCU: 0xE501, offset: 0xE501, size: 0x8, addend: 0x0, symName: __ZNSt3__19allocatorINS_11__tree_nodeIiPvEEEC2B7v160006Ev, symObjAddr: 0x1DF0, symBinAddr: 0x100002F0C, symSize: 0x2C }
  - { offsetInCU: 0xE52B, offset: 0xE52B, size: 0x8, addend: 0x0, symName: __ZNSt3__116__non_trivial_ifILb1ENS_9allocatorINS_11__tree_nodeIiPvEEEEEC2B7v160006Ev, symObjAddr: 0x1E1C, symBinAddr: 0x100002F38, symSize: 0x14 }
  - { offsetInCU: 0xE555, offset: 0xE555, size: 0x8, addend: 0x0, symName: __ZNSt3__117__compressed_pairImNS_4lessIiEEEC2B7v160006IiRKS2_EEOT_OT0_, symObjAddr: 0x1E30, symBinAddr: 0x100002F4C, symSize: 0x44 }
  - { offsetInCU: 0xE5AD, offset: 0xE5AD, size: 0x8, addend: 0x0, symName: __ZNSt3__122__compressed_pair_elemImLi0ELb0EEC2B7v160006IivEEOT_, symObjAddr: 0x1E74, symBinAddr: 0x100002F90, symSize: 0x24 }
  - { offsetInCU: 0xE5EF, offset: 0xE5EF, size: 0x8, addend: 0x0, symName: __ZNSt3__122__compressed_pair_elemINS_4lessIiEELi1ELb1EEC2B7v160006IRKS2_vEEOT_, symObjAddr: 0x1E98, symBinAddr: 0x100002FB4, symSize: 0x18 }
  - { offsetInCU: 0xE631, offset: 0xE631, size: 0x8, addend: 0x0, symName: __ZNKSt3__13setIiNS_4lessIiEENS_9allocatorIiEEE4cendB7v160006Ev, symObjAddr: 0x1EB0, symBinAddr: 0x100002FCC, symSize: 0x2C }
  - { offsetInCU: 0xE657, offset: 0xE657, size: 0x8, addend: 0x0, symName: __ZNSt3__16__treeIiNS_4lessIiEENS_9allocatorIiEEE15__insert_uniqueB7v160006ENS_21__tree_const_iteratorIiPNS_11__tree_nodeIiPvEElEERKi, symObjAddr: 0x1EDC, symBinAddr: 0x100002FF8, symSize: 0x64 }
  - { offsetInCU: 0xE69B, offset: 0xE69B, size: 0x8, addend: 0x0, symName: __ZNKSt3__13setIiNS_4lessIiEENS_9allocatorIiEEE3endB7v160006Ev, symObjAddr: 0x1F40, symBinAddr: 0x10000305C, symSize: 0x2C }
  - { offsetInCU: 0xE6C1, offset: 0xE6C1, size: 0x8, addend: 0x0, symName: __ZNKSt3__16__treeIiNS_4lessIiEENS_9allocatorIiEEE3endB7v160006Ev, symObjAddr: 0x1F6C, symBinAddr: 0x100003088, symSize: 0x34 }
  - { offsetInCU: 0xE6E7, offset: 0xE6E7, size: 0x8, addend: 0x0, symName: __ZNKSt3__16__treeIiNS_4lessIiEENS_9allocatorIiEEE10__end_nodeB7v160006Ev, symObjAddr: 0x1FA0, symBinAddr: 0x1000030BC, symSize: 0x2C }
  - { offsetInCU: 0xE70D, offset: 0xE70D, size: 0x8, addend: 0x0, symName: __ZNSt3__121__tree_const_iteratorIiPNS_11__tree_nodeIiPvEElEC1B7v160006EPNS_15__tree_end_nodeIPNS_16__tree_node_baseIS2_EEEE, symObjAddr: 0x1FCC, symBinAddr: 0x1000030E8, symSize: 0x34 }
  - { offsetInCU: 0xE746, offset: 0xE746, size: 0x8, addend: 0x0, symName: __ZNKSt3__117__compressed_pairINS_15__tree_end_nodeIPNS_16__tree_node_baseIPvEEEENS_9allocatorINS_11__tree_nodeIiS3_EEEEE5firstB7v160006Ev, symObjAddr: 0x2000, symBinAddr: 0x10000311C, symSize: 0x24 }
  - { offsetInCU: 0xE76C, offset: 0xE76C, size: 0x8, addend: 0x0, symName: __ZNKSt3__122__compressed_pair_elemINS_15__tree_end_nodeIPNS_16__tree_node_baseIPvEEEELi0ELb0EE5__getB7v160006Ev, symObjAddr: 0x2024, symBinAddr: 0x100003140, symSize: 0x14 }
  - { offsetInCU: 0xE792, offset: 0xE792, size: 0x8, addend: 0x0, symName: __ZNSt3__121__tree_const_iteratorIiPNS_11__tree_nodeIiPvEElEC2B7v160006EPNS_15__tree_end_nodeIPNS_16__tree_node_baseIS2_EEEE, symObjAddr: 0x2038, symBinAddr: 0x100003154, symSize: 0x20 }
  - { offsetInCU: 0xE7CB, offset: 0xE7CB, size: 0x8, addend: 0x0, symName: __ZNSt3__16__treeIiNS_4lessIiEENS_9allocatorIiEEE30__emplace_hint_unique_key_argsIiJRKiEEENS_4pairINS_15__tree_iteratorIiPNS_11__tree_nodeIiPvEElEEbEENS_21__tree_const_iteratorIiSE_lEERKT_DpOT0_, symObjAddr: 0x2058, symBinAddr: 0x100003174, symSize: 0x104 }
  - { offsetInCU: 0xE897, offset: 0xE897, size: 0x8, addend: 0x0, symName: __ZNSt3__122__tree_key_value_typesIiE9__get_keyB7v160006ERKi, symObjAddr: 0x215C, symBinAddr: 0x100003278, symSize: 0x14 }
  - { offsetInCU: 0xE8BB, offset: 0xE8BB, size: 0x8, addend: 0x0, symName: __ZNSt3__16__treeIiNS_4lessIiEENS_9allocatorIiEEE12__find_equalIiEERPNS_16__tree_node_baseIPvEENS_21__tree_const_iteratorIiPNS_11__tree_nodeIiS8_EElEERPNS_15__tree_end_nodeISA_EESB_RKT_, symObjAddr: 0x2170, symBinAddr: 0x10000328C, symSize: 0x304 }
  - { offsetInCU: 0xE964, offset: 0xE964, size: 0x8, addend: 0x0, symName: __ZNSt3__16__treeIiNS_4lessIiEENS_9allocatorIiEEE16__construct_nodeIJRKiEEENS_10unique_ptrINS_11__tree_nodeIiPvEENS_22__tree_node_destructorINS3_ISC_EEEEEEDpOT_, symObjAddr: 0x2474, symBinAddr: 0x100003590, symSize: 0x110 }
  - { offsetInCU: 0xE9C5, offset: 0xE9C5, size: 0x8, addend: 0x0, symName: __ZNSt3__16__treeIiNS_4lessIiEENS_9allocatorIiEEE16__insert_node_atEPNS_15__tree_end_nodeIPNS_16__tree_node_baseIPvEEEERSA_SA_, symObjAddr: 0x2584, symBinAddr: 0x1000036A0, symSize: 0xCC }
  - { offsetInCU: 0xEA1A, offset: 0xEA1A, size: 0x8, addend: 0x0, symName: __ZNKSt3__110unique_ptrINS_11__tree_nodeIiPvEENS_22__tree_node_destructorINS_9allocatorIS3_EEEEE3getB7v160006Ev, symObjAddr: 0x2650, symBinAddr: 0x10000376C, symSize: 0x28 }
  - { offsetInCU: 0xEA40, offset: 0xEA40, size: 0x8, addend: 0x0, symName: __ZNSt3__110unique_ptrINS_11__tree_nodeIiPvEENS_22__tree_node_destructorINS_9allocatorIS3_EEEEE7releaseB7v160006Ev, symObjAddr: 0x2678, symBinAddr: 0x100003794, symSize: 0x44 }
  - { offsetInCU: 0xEA75, offset: 0xEA75, size: 0x8, addend: 0x0, symName: __ZNSt3__110unique_ptrINS_11__tree_nodeIiPvEENS_22__tree_node_destructorINS_9allocatorIS3_EEEEED1B7v160006Ev, symObjAddr: 0x26BC, symBinAddr: 0x1000037D8, symSize: 0x2C }
  - { offsetInCU: 0xEA9F, offset: 0xEA9F, size: 0x8, addend: 0x0, symName: __ZNSt3__115__tree_iteratorIiPNS_11__tree_nodeIiPvEElEC1B7v160006ES4_, symObjAddr: 0x26E8, symBinAddr: 0x100003804, symSize: 0x34 }
  - { offsetInCU: 0xEAE2, offset: 0xEAE2, size: 0x8, addend: 0x0, symName: __ZNSt3__14pairINS_15__tree_iteratorIiPNS_11__tree_nodeIiPvEElEEbEC1B7v160006IS6_RbLS3_0EEEOT_OT0_, symObjAddr: 0x271C, symBinAddr: 0x100003838, symSize: 0x3C }
  - { offsetInCU: 0xEB40, offset: 0xEB40, size: 0x8, addend: 0x0, symName: __ZNSt3__16__treeIiNS_4lessIiEENS_9allocatorIiEEE10value_compB7v160006Ev, symObjAddr: 0x2758, symBinAddr: 0x100003874, symSize: 0x28 }
  - { offsetInCU: 0xEB66, offset: 0xEB66, size: 0x8, addend: 0x0, symName: __ZNKSt3__14lessIiEclB7v160006ERKiS3_, symObjAddr: 0x2780, symBinAddr: 0x10000389C, symSize: 0x34 }
  - { offsetInCU: 0xEBAA, offset: 0xEBAA, size: 0x8, addend: 0x0, symName: __ZNSt3__121__tree_const_iteratorIiPNS_11__tree_nodeIiPvEElEmmB7v160006Ev, symObjAddr: 0x27B4, symBinAddr: 0x1000038D0, symSize: 0x38 }
  - { offsetInCU: 0xEBD0, offset: 0xEBD0, size: 0x8, addend: 0x0, symName: __ZNSt3__16__treeIiNS_4lessIiEENS_9allocatorIiEEE12__find_equalIiEERPNS_16__tree_node_baseIPvEERPNS_15__tree_end_nodeISA_EERKT_, symObjAddr: 0x27EC, symBinAddr: 0x100003908, symSize: 0x184 }
  - { offsetInCU: 0xEC3D, offset: 0xEC3D, size: 0x8, addend: 0x0, symName: __ZNSt3__117__compressed_pairImNS_4lessIiEEE6secondB7v160006Ev, symObjAddr: 0x29C0, symBinAddr: 0x100003ADC, symSize: 0x24 }
  - { offsetInCU: 0xEC63, offset: 0xEC63, size: 0x8, addend: 0x0, symName: __ZNSt3__122__compressed_pair_elemINS_4lessIiEELi1ELb1EE5__getB7v160006Ev, symObjAddr: 0x29E4, symBinAddr: 0x100003B00, symSize: 0x14 }
  - { offsetInCU: 0xEC89, offset: 0xEC89, size: 0x8, addend: 0x0, symName: __ZNKSt3__116__tree_node_baseIPvE15__parent_unsafeB7v160006Ev, symObjAddr: 0x2B08, symBinAddr: 0x100003C24, symSize: 0x18 }
  - { offsetInCU: 0xECAF, offset: 0xECAF, size: 0x8, addend: 0x0, symName: __ZNKSt3__16__treeIiNS_4lessIiEENS_9allocatorIiEEE6__rootB7v160006Ev, symObjAddr: 0x2B20, symBinAddr: 0x100003C3C, symSize: 0x28 }
  - { offsetInCU: 0xECD5, offset: 0xECD5, size: 0x8, addend: 0x0, symName: __ZNKSt3__16__treeIiNS_4lessIiEENS_9allocatorIiEEE10__root_ptrEv, symObjAddr: 0x2B48, symBinAddr: 0x100003C64, symSize: 0x24 }
  - { offsetInCU: 0xECFB, offset: 0xECFB, size: 0x8, addend: 0x0, symName: __ZNSt3__16__treeIiNS_4lessIiEENS_9allocatorIiEEE12__node_allocB7v160006Ev, symObjAddr: 0x2C74, symBinAddr: 0x100003D90, symSize: 0x28 }
  - { offsetInCU: 0xED21, offset: 0xED21, size: 0x8, addend: 0x0, symName: __ZNSt3__116allocator_traitsINS_9allocatorINS_11__tree_nodeIiPvEEEEE8allocateB7v160006ERS5_m, symObjAddr: 0x2C9C, symBinAddr: 0x100003DB8, symSize: 0x2C }
  - { offsetInCU: 0xED54, offset: 0xED54, size: 0x8, addend: 0x0, symName: __ZNSt3__122__tree_node_destructorINS_9allocatorINS_11__tree_nodeIiPvEEEEEC1B7v160006ERS5_b, symObjAddr: 0x2CC8, symBinAddr: 0x100003DE4, symSize: 0x48 }
  - { offsetInCU: 0xEDA1, offset: 0xEDA1, size: 0x8, addend: 0x0, symName: __ZNSt3__110unique_ptrINS_11__tree_nodeIiPvEENS_22__tree_node_destructorINS_9allocatorIS3_EEEEEC1B7v160006ILb1EvEEPS3_NS_16__dependent_typeINS_27__unique_ptr_deleter_sfinaeIS7_EEXT_EE20__good_rval_ref_typeE, symObjAddr: 0x2D10, symBinAddr: 0x100003E2C, symSize: 0x3C }
  - { offsetInCU: 0xEDF2, offset: 0xEDF2, size: 0x8, addend: 0x0, symName: __ZNSt3__116allocator_traitsINS_9allocatorINS_11__tree_nodeIiPvEEEEE9constructB7v160006IiJRKiEvEEvRS5_PT_DpOT0_, symObjAddr: 0x2D4C, symBinAddr: 0x100003E68, symSize: 0x34 }
  - { offsetInCU: 0xEE49, offset: 0xEE49, size: 0x8, addend: 0x0, symName: __ZNSt3__122__tree_key_value_typesIiE9__get_ptrB7v160006ERi, symObjAddr: 0x2D80, symBinAddr: 0x100003E9C, symSize: 0x14 }
  - { offsetInCU: 0xEE6D, offset: 0xEE6D, size: 0x8, addend: 0x0, symName: __ZNKSt3__110unique_ptrINS_11__tree_nodeIiPvEENS_22__tree_node_destructorINS_9allocatorIS3_EEEEEptB7v160006Ev, symObjAddr: 0x2D94, symBinAddr: 0x100003EB0, symSize: 0x28 }
  - { offsetInCU: 0xEE93, offset: 0xEE93, size: 0x8, addend: 0x0, symName: __ZNSt3__110unique_ptrINS_11__tree_nodeIiPvEENS_22__tree_node_destructorINS_9allocatorIS3_EEEEE11get_deleterB7v160006Ev, symObjAddr: 0x2DBC, symBinAddr: 0x100003ED8, symSize: 0x24 }
  - { offsetInCU: 0xEEB9, offset: 0xEEB9, size: 0x8, addend: 0x0, symName: __ZNSt3__117__compressed_pairINS_15__tree_end_nodeIPNS_16__tree_node_baseIPvEEEENS_9allocatorINS_11__tree_nodeIiS3_EEEEE6secondB7v160006Ev, symObjAddr: 0x2DE0, symBinAddr: 0x100003EFC, symSize: 0x24 }
  - { offsetInCU: 0xEEDF, offset: 0xEEDF, size: 0x8, addend: 0x0, symName: __ZNSt3__122__compressed_pair_elemINS_9allocatorINS_11__tree_nodeIiPvEEEELi1ELb1EE5__getB7v160006Ev, symObjAddr: 0x2E04, symBinAddr: 0x100003F20, symSize: 0x14 }
  - { offsetInCU: 0xEF05, offset: 0xEF05, size: 0x8, addend: 0x0, symName: __ZNSt3__19allocatorINS_11__tree_nodeIiPvEEE8allocateB7v160006Em, symObjAddr: 0x2E18, symBinAddr: 0x100003F34, symSize: 0x58 }
  - { offsetInCU: 0xEF43, offset: 0xEF43, size: 0x8, addend: 0x0, symName: __ZNSt3__116allocator_traitsINS_9allocatorINS_11__tree_nodeIiPvEEEEE8max_sizeB7v160006IS5_vEEmRKS5_, symObjAddr: 0x2E70, symBinAddr: 0x100003F8C, symSize: 0x24 }
  - { offsetInCU: 0xEF71, offset: 0xEF71, size: 0x8, addend: 0x0, symName: __ZNKSt3__19allocatorINS_11__tree_nodeIiPvEEE8max_sizeB7v160006Ev, symObjAddr: 0x2EF0, symBinAddr: 0x10000400C, symSize: 0x14 }
  - { offsetInCU: 0xEF97, offset: 0xEF97, size: 0x8, addend: 0x0, symName: __ZNSt3__122__tree_node_destructorINS_9allocatorINS_11__tree_nodeIiPvEEEEEC2B7v160006ERS5_b, symObjAddr: 0x2F28, symBinAddr: 0x100004044, symSize: 0x38 }
  - { offsetInCU: 0xEFDF, offset: 0xEFDF, size: 0x8, addend: 0x0, symName: __ZNSt3__110unique_ptrINS_11__tree_nodeIiPvEENS_22__tree_node_destructorINS_9allocatorIS3_EEEEEC2B7v160006ILb1EvEEPS3_NS_16__dependent_typeINS_27__unique_ptr_deleter_sfinaeIS7_EEXT_EE20__good_rval_ref_typeE, symObjAddr: 0x2F60, symBinAddr: 0x10000407C, symSize: 0x48 }
  - { offsetInCU: 0xF030, offset: 0xF030, size: 0x8, addend: 0x0, symName: __ZNSt3__117__compressed_pairIPNS_11__tree_nodeIiPvEENS_22__tree_node_destructorINS_9allocatorIS3_EEEEEC1B7v160006IRS4_S8_EEOT_OT0_, symObjAddr: 0x2FA8, symBinAddr: 0x1000040C4, symSize: 0x3C }
  - { offsetInCU: 0xF088, offset: 0xF088, size: 0x8, addend: 0x0, symName: __ZNSt3__117__compressed_pairIPNS_11__tree_nodeIiPvEENS_22__tree_node_destructorINS_9allocatorIS3_EEEEEC2B7v160006IRS4_S8_EEOT_OT0_, symObjAddr: 0x2FE4, symBinAddr: 0x100004100, symSize: 0x48 }
  - { offsetInCU: 0xF0E0, offset: 0xF0E0, size: 0x8, addend: 0x0, symName: __ZNSt3__122__compressed_pair_elemIPNS_11__tree_nodeIiPvEELi0ELb0EEC2B7v160006IRS4_vEEOT_, symObjAddr: 0x302C, symBinAddr: 0x100004148, symSize: 0x24 }
  - { offsetInCU: 0xF122, offset: 0xF122, size: 0x8, addend: 0x0, symName: __ZNSt3__122__compressed_pair_elemINS_22__tree_node_destructorINS_9allocatorINS_11__tree_nodeIiPvEEEEEELi1ELb0EEC2B7v160006IS7_vEEOT_, symObjAddr: 0x3050, symBinAddr: 0x10000416C, symSize: 0x24 }
  - { offsetInCU: 0xF164, offset: 0xF164, size: 0x8, addend: 0x0, symName: __ZNSt3__19allocatorINS_11__tree_nodeIiPvEEE9constructB7v160006IiJRKiEEEvPT_DpOT0_, symObjAddr: 0x3074, symBinAddr: 0x100004190, symSize: 0x28 }
  - { offsetInCU: 0xF1BA, offset: 0xF1BA, size: 0x8, addend: 0x0, symName: __ZNKSt3__117__compressed_pairIPNS_11__tree_nodeIiPvEENS_22__tree_node_destructorINS_9allocatorIS3_EEEEE5firstB7v160006Ev, symObjAddr: 0x309C, symBinAddr: 0x1000041B8, symSize: 0x24 }
  - { offsetInCU: 0xF1E0, offset: 0xF1E0, size: 0x8, addend: 0x0, symName: __ZNKSt3__122__compressed_pair_elemIPNS_11__tree_nodeIiPvEELi0ELb0EE5__getB7v160006Ev, symObjAddr: 0x30C0, symBinAddr: 0x1000041DC, symSize: 0x14 }
  - { offsetInCU: 0xF206, offset: 0xF206, size: 0x8, addend: 0x0, symName: __ZNSt3__117__compressed_pairIPNS_11__tree_nodeIiPvEENS_22__tree_node_destructorINS_9allocatorIS3_EEEEE6secondB7v160006Ev, symObjAddr: 0x30D4, symBinAddr: 0x1000041F0, symSize: 0x28 }
  - { offsetInCU: 0xF22C, offset: 0xF22C, size: 0x8, addend: 0x0, symName: __ZNSt3__122__compressed_pair_elemINS_22__tree_node_destructorINS_9allocatorINS_11__tree_nodeIiPvEEEEEELi1ELb0EE5__getB7v160006Ev, symObjAddr: 0x30FC, symBinAddr: 0x100004218, symSize: 0x14 }
  - { offsetInCU: 0xF252, offset: 0xF252, size: 0x8, addend: 0x0, symName: __ZNSt3__16__treeIiNS_4lessIiEENS_9allocatorIiEEE4sizeB7v160006Ev, symObjAddr: 0x338C, symBinAddr: 0x1000044A8, symSize: 0x28 }
  - { offsetInCU: 0xF278, offset: 0xF278, size: 0x8, addend: 0x0, symName: __ZNSt3__116__tree_node_baseIPvE12__set_parentB7v160006EPS2_, symObjAddr: 0x3558, symBinAddr: 0x100004674, symSize: 0x20 }
  - { offsetInCU: 0xF2AD, offset: 0xF2AD, size: 0x8, addend: 0x0, symName: __ZNSt3__117__compressed_pairImNS_4lessIiEEE5firstB7v160006Ev, symObjAddr: 0x3578, symBinAddr: 0x100004694, symSize: 0x24 }
  - { offsetInCU: 0xF2D3, offset: 0xF2D3, size: 0x8, addend: 0x0, symName: __ZNSt3__122__compressed_pair_elemImLi0ELb0EE5__getB7v160006Ev, symObjAddr: 0x359C, symBinAddr: 0x1000046B8, symSize: 0x14 }
  - { offsetInCU: 0xF2F9, offset: 0xF2F9, size: 0x8, addend: 0x0, symName: __ZNSt3__117__compressed_pairIPNS_11__tree_nodeIiPvEENS_22__tree_node_destructorINS_9allocatorIS3_EEEEE5firstB7v160006Ev, symObjAddr: 0x35B0, symBinAddr: 0x1000046CC, symSize: 0x24 }
  - { offsetInCU: 0xF31F, offset: 0xF31F, size: 0x8, addend: 0x0, symName: __ZNSt3__122__compressed_pair_elemIPNS_11__tree_nodeIiPvEELi0ELb0EE5__getB7v160006Ev, symObjAddr: 0x35D4, symBinAddr: 0x1000046F0, symSize: 0x14 }
  - { offsetInCU: 0xF345, offset: 0xF345, size: 0x8, addend: 0x0, symName: __ZNSt3__110unique_ptrINS_11__tree_nodeIiPvEENS_22__tree_node_destructorINS_9allocatorIS3_EEEEED2B7v160006Ev, symObjAddr: 0x35E8, symBinAddr: 0x100004704, symSize: 0x30 }
  - { offsetInCU: 0xF36F, offset: 0xF36F, size: 0x8, addend: 0x0, symName: __ZNSt3__110unique_ptrINS_11__tree_nodeIiPvEENS_22__tree_node_destructorINS_9allocatorIS3_EEEEE5resetB7v160006EPS3_, symObjAddr: 0x3618, symBinAddr: 0x100004734, symSize: 0x78 }
  - { offsetInCU: 0xF3B3, offset: 0xF3B3, size: 0x8, addend: 0x0, symName: __ZNSt3__122__tree_node_destructorINS_9allocatorINS_11__tree_nodeIiPvEEEEEclB7v160006EPS4_, symObjAddr: 0x3690, symBinAddr: 0x1000047AC, symSize: 0x90 }
  - { offsetInCU: 0xF3E8, offset: 0xF3E8, size: 0x8, addend: 0x0, symName: __ZNSt3__116allocator_traitsINS_9allocatorINS_11__tree_nodeIiPvEEEEE7destroyB7v160006IivvEEvRS5_PT_, symObjAddr: 0x3720, symBinAddr: 0x10000483C, symSize: 0x14 }
  - { offsetInCU: 0xF423, offset: 0xF423, size: 0x8, addend: 0x0, symName: __ZNSt3__116allocator_traitsINS_9allocatorINS_11__tree_nodeIiPvEEEEE10deallocateB7v160006ERS5_PS4_m, symObjAddr: 0x3734, symBinAddr: 0x100004850, symSize: 0x34 }
  - { offsetInCU: 0xF465, offset: 0xF465, size: 0x8, addend: 0x0, symName: __ZNSt3__19allocatorINS_11__tree_nodeIiPvEEE10deallocateB7v160006EPS3_m, symObjAddr: 0x3768, symBinAddr: 0x100004884, symSize: 0x40 }
  - { offsetInCU: 0xF4A7, offset: 0xF4A7, size: 0x8, addend: 0x0, symName: __ZNSt3__115__tree_iteratorIiPNS_11__tree_nodeIiPvEElEC2B7v160006ES4_, symObjAddr: 0x3824, symBinAddr: 0x100004940, symSize: 0x20 }
  - { offsetInCU: 0xF4E0, offset: 0xF4E0, size: 0x8, addend: 0x0, symName: __ZNSt3__14pairINS_15__tree_iteratorIiPNS_11__tree_nodeIiPvEElEEbEC2B7v160006IS6_RbLS3_0EEEOT_OT0_, symObjAddr: 0x3844, symBinAddr: 0x100004960, symSize: 0x38 }
  - { offsetInCU: 0xF53E, offset: 0xF53E, size: 0x8, addend: 0x0, symName: __ZNSt3__16__treeIiNS_4lessIiEENS_9allocatorIiEEED2Ev, symObjAddr: 0x387C, symBinAddr: 0x100004998, symSize: 0x38 }
  - { offsetInCU: 0xF56A, offset: 0xF56A, size: 0x8, addend: 0x0, symName: __ZNSt3__16__treeIiNS_4lessIiEENS_9allocatorIiEEE7destroyEPNS_11__tree_nodeIiPvEE, symObjAddr: 0x38B4, symBinAddr: 0x1000049D0, symSize: 0x9C }
  - { offsetInCU: 0xF5BE, offset: 0xF5BE, size: 0x8, addend: 0x0, symName: __ZNSt3__13setIiNS_4lessIiEENS_9allocatorIiEEED2B7v160006Ev, symObjAddr: 0x3950, symBinAddr: 0x100004A6C, symSize: 0x2C }
  - { offsetInCU: 0xF5E8, offset: 0xF5E8, size: 0x8, addend: 0x0, symName: __ZNSt3__16__treeIiNS_4lessIiEENS_9allocatorIiEEE15__insert_uniqueB7v160006EOi, symObjAddr: 0x397C, symBinAddr: 0x100004A98, symSize: 0x50 }
  - { offsetInCU: 0xF61D, offset: 0xF61D, size: 0x8, addend: 0x0, symName: __ZNSt3__14pairINS_21__tree_const_iteratorIiPNS_11__tree_nodeIiPvEElEEbEC1B7v160006INS_15__tree_iteratorIiS5_lEEbLS3_0EEEONS0_IT_T0_EE, symObjAddr: 0x39CC, symBinAddr: 0x100004AE8, symSize: 0x34 }
  - { offsetInCU: 0xF66E, offset: 0xF66E, size: 0x8, addend: 0x0, symName: __ZNSt3__16__treeIiNS_4lessIiEENS_9allocatorIiEEE25__emplace_unique_key_argsIiJiEEENS_4pairINS_15__tree_iteratorIiPNS_11__tree_nodeIiPvEElEEbEERKT_DpOT0_, symObjAddr: 0x3A00, symBinAddr: 0x100004B1C, symSize: 0xF0 }
  - { offsetInCU: 0xF71A, offset: 0xF71A, size: 0x8, addend: 0x0, symName: __ZNSt3__16__treeIiNS_4lessIiEENS_9allocatorIiEEE16__construct_nodeIJiEEENS_10unique_ptrINS_11__tree_nodeIiPvEENS_22__tree_node_destructorINS3_ISA_EEEEEEDpOT_, symObjAddr: 0x3AF0, symBinAddr: 0x100004C0C, symSize: 0x108 }
  - { offsetInCU: 0xF77B, offset: 0xF77B, size: 0x8, addend: 0x0, symName: __ZNSt3__116allocator_traitsINS_9allocatorINS_11__tree_nodeIiPvEEEEE9constructB7v160006IiJiEvEEvRS5_PT_DpOT0_, symObjAddr: 0x3BF8, symBinAddr: 0x100004D14, symSize: 0x34 }
  - { offsetInCU: 0xF7D2, offset: 0xF7D2, size: 0x8, addend: 0x0, symName: __ZNSt3__19allocatorINS_11__tree_nodeIiPvEEE9constructB7v160006IiJiEEEvPT_DpOT0_, symObjAddr: 0x3C2C, symBinAddr: 0x100004D48, symSize: 0x28 }
  - { offsetInCU: 0xF828, offset: 0xF828, size: 0x8, addend: 0x0, symName: __ZNSt3__14pairINS_21__tree_const_iteratorIiPNS_11__tree_nodeIiPvEElEEbEC2B7v160006INS_15__tree_iteratorIiS5_lEEbLS3_0EEEONS0_IT_T0_EE, symObjAddr: 0x3C54, symBinAddr: 0x100004D70, symSize: 0x50 }
  - { offsetInCU: 0xF879, offset: 0xF879, size: 0x8, addend: 0x0, symName: __ZNSt3__16__treeIiNS_4lessIiEENS_9allocatorIiEEE4findIiEENS_15__tree_iteratorIiPNS_11__tree_nodeIiPvEElEERKT_, symObjAddr: 0x3D64, symBinAddr: 0x100004E80, symSize: 0xF8 }
  - { offsetInCU: 0xF8C8, offset: 0xF8C8, size: 0x8, addend: 0x0, symName: __ZNSt3__16__treeIiNS_4lessIiEENS_9allocatorIiEEE13__lower_boundIiEENS_15__tree_iteratorIiPNS_11__tree_nodeIiPvEElEERKT_SB_PNS_15__tree_end_nodeIPNS_16__tree_node_baseIS9_EEEE, symObjAddr: 0x3E5C, symBinAddr: 0x100004F78, symSize: 0xA4 }
  - { offsetInCU: 0xF926, offset: 0xF926, size: 0x8, addend: 0x0, symName: __ZNKSt3__115__tree_iteratorIiPNS_11__tree_nodeIiPvEElEdeB7v160006Ev, symObjAddr: 0x3F34, symBinAddr: 0x100005050, symSize: 0x28 }
  - { offsetInCU: 0xF94C, offset: 0xF94C, size: 0x8, addend: 0x0, symName: __ZNKSt3__115__tree_iteratorIiPNS_11__tree_nodeIiPvEElE8__get_npB7v160006Ev, symObjAddr: 0x3F8C, symBinAddr: 0x1000050A8, symSize: 0x18 }
  - { offsetInCU: 0xF972, offset: 0xF972, size: 0x8, addend: 0x0, symName: __ZNSt3__16__treeIiNS_4lessIiEENS_9allocatorIiEEE5eraseENS_21__tree_const_iteratorIiPNS_11__tree_nodeIiPvEElEE, symObjAddr: 0x3FA4, symBinAddr: 0x1000050C0, symSize: 0x98 }
  - { offsetInCU: 0xF9D6, offset: 0xF9D6, size: 0x8, addend: 0x0, symName: __ZNSt3__16__treeIiNS_4lessIiEENS_9allocatorIiEEE21__remove_node_pointerEPNS_11__tree_nodeIiPvEE, symObjAddr: 0x403C, symBinAddr: 0x100005158, symSize: 0xB4 }
  - { offsetInCU: 0xFA1C, offset: 0xFA1C, size: 0x8, addend: 0x0, symName: __ZNSt3__115__tree_iteratorIiPNS_11__tree_nodeIiPvEElEppB7v160006Ev, symObjAddr: 0x40F0, symBinAddr: 0x10000520C, symSize: 0x38 }
  - { offsetInCU: 0xFA42, offset: 0xFA42, size: 0x8, addend: 0x0, symName: __ZNSt3__13mapINS_12basic_stringIcNS_11char_traitsIcEENS_9allocatorIcEEEEiNS_4lessIS6_EENS4_INS_4pairIKS6_iEEEEEC2B7v160006Ev, symObjAddr: 0x4888, symBinAddr: 0x1000059A4, symSize: 0x40 }
  - { offsetInCU: 0xFA6C, offset: 0xFA6C, size: 0x8, addend: 0x0, symName: __ZNSt3__119__map_value_compareINS_12basic_stringIcNS_11char_traitsIcEENS_9allocatorIcEEEENS_12__value_typeIS6_iEENS_4lessIS6_EELb1EEC1B7v160006ESA_, symObjAddr: 0x48C8, symBinAddr: 0x1000059E4, symSize: 0x2C }
  - { offsetInCU: 0xFAA5, offset: 0xFAA5, size: 0x8, addend: 0x0, symName: __ZNSt3__16__treeINS_12__value_typeINS_12basic_stringIcNS_11char_traitsIcEENS_9allocatorIcEEEEiEENS_19__map_value_compareIS7_S8_NS_4lessIS7_EELb1EEENS5_IS8_EEEC1ERKSC_, symObjAddr: 0x48F4, symBinAddr: 0x100005A10, symSize: 0x34 }
  - { offsetInCU: 0xFAE0, offset: 0xFAE0, size: 0x8, addend: 0x0, symName: __ZNSt3__119__map_value_compareINS_12basic_stringIcNS_11char_traitsIcEENS_9allocatorIcEEEENS_12__value_typeIS6_iEENS_4lessIS6_EELb1EEC2B7v160006ESA_, symObjAddr: 0x4928, symBinAddr: 0x100005A44, symSize: 0x14 }
  - { offsetInCU: 0xFB19, offset: 0xFB19, size: 0x8, addend: 0x0, symName: __ZNSt3__16__treeINS_12__value_typeINS_12basic_stringIcNS_11char_traitsIcEENS_9allocatorIcEEEEiEENS_19__map_value_compareIS7_S8_NS_4lessIS7_EELb1EEENS5_IS8_EEEC2ERKSC_, symObjAddr: 0x493C, symBinAddr: 0x100005A58, symSize: 0x7C }
  - { offsetInCU: 0xFB54, offset: 0xFB54, size: 0x8, addend: 0x0, symName: __ZNSt3__117__compressed_pairINS_15__tree_end_nodeIPNS_16__tree_node_baseIPvEEEENS_9allocatorINS_11__tree_nodeINS_12__value_typeINS_12basic_stringIcNS_11char_traitsIcEENS7_IcEEEEiEES3_EEEEEC1B7v160006ILb1EvEEv, symObjAddr: 0x49B8, symBinAddr: 0x100005AD4, symSize: 0x2C }
  - { offsetInCU: 0xFB89, offset: 0xFB89, size: 0x8, addend: 0x0, symName: __ZNSt3__117__compressed_pairImNS_19__map_value_compareINS_12basic_stringIcNS_11char_traitsIcEENS_9allocatorIcEEEENS_12__value_typeIS7_iEENS_4lessIS7_EELb1EEEEC1B7v160006IiRKSC_EEOT_OT0_, symObjAddr: 0x49E4, symBinAddr: 0x100005B00, symSize: 0x3C }
  - { offsetInCU: 0xFBE1, offset: 0xFBE1, size: 0x8, addend: 0x0, symName: __ZNSt3__16__treeINS_12__value_typeINS_12basic_stringIcNS_11char_traitsIcEENS_9allocatorIcEEEEiEENS_19__map_value_compareIS7_S8_NS_4lessIS7_EELb1EEENS5_IS8_EEE10__end_nodeB7v160006Ev, symObjAddr: 0x4A20, symBinAddr: 0x100005B3C, symSize: 0x2C }
  - { offsetInCU: 0xFC07, offset: 0xFC07, size: 0x8, addend: 0x0, symName: __ZNSt3__16__treeINS_12__value_typeINS_12basic_stringIcNS_11char_traitsIcEENS_9allocatorIcEEEEiEENS_19__map_value_compareIS7_S8_NS_4lessIS7_EELb1EEENS5_IS8_EEE12__begin_nodeB7v160006Ev, symObjAddr: 0x4A4C, symBinAddr: 0x100005B68, symSize: 0x14 }
  - { offsetInCU: 0xFC2D, offset: 0xFC2D, size: 0x8, addend: 0x0, symName: __ZNSt3__117__compressed_pairINS_15__tree_end_nodeIPNS_16__tree_node_baseIPvEEEENS_9allocatorINS_11__tree_nodeINS_12__value_typeINS_12basic_stringIcNS_11char_traitsIcEENS7_IcEEEEiEES3_EEEEEC2B7v160006ILb1EvEEv, symObjAddr: 0x4A60, symBinAddr: 0x100005B7C, symSize: 0x34 }
  - { offsetInCU: 0xFC62, offset: 0xFC62, size: 0x8, addend: 0x0, symName: __ZNSt3__122__compressed_pair_elemINS_9allocatorINS_11__tree_nodeINS_12__value_typeINS_12basic_stringIcNS_11char_traitsIcEENS1_IcEEEEiEEPvEEEELi1ELb1EEC2B7v160006ENS_16__value_init_tagE, symObjAddr: 0x4A94, symBinAddr: 0x100005BB0, symSize: 0x2C }
  - { offsetInCU: 0xFC96, offset: 0xFC96, size: 0x8, addend: 0x0, symName: __ZNSt3__19allocatorINS_11__tree_nodeINS_12__value_typeINS_12basic_stringIcNS_11char_traitsIcEENS0_IcEEEEiEEPvEEEC2B7v160006Ev, symObjAddr: 0x4AC0, symBinAddr: 0x100005BDC, symSize: 0x2C }
  - { offsetInCU: 0xFCC0, offset: 0xFCC0, size: 0x8, addend: 0x0, symName: __ZNSt3__116__non_trivial_ifILb1ENS_9allocatorINS_11__tree_nodeINS_12__value_typeINS_12basic_stringIcNS_11char_traitsIcEENS1_IcEEEEiEEPvEEEEEC2B7v160006Ev, symObjAddr: 0x4AEC, symBinAddr: 0x100005C08, symSize: 0x14 }
  - { offsetInCU: 0xFCEA, offset: 0xFCEA, size: 0x8, addend: 0x0, symName: __ZNSt3__117__compressed_pairImNS_19__map_value_compareINS_12basic_stringIcNS_11char_traitsIcEENS_9allocatorIcEEEENS_12__value_typeIS7_iEENS_4lessIS7_EELb1EEEEC2B7v160006IiRKSC_EEOT_OT0_, symObjAddr: 0x4B00, symBinAddr: 0x100005C1C, symSize: 0x44 }
  - { offsetInCU: 0xFD42, offset: 0xFD42, size: 0x8, addend: 0x0, symName: __ZNSt3__122__compressed_pair_elemINS_19__map_value_compareINS_12basic_stringIcNS_11char_traitsIcEENS_9allocatorIcEEEENS_12__value_typeIS7_iEENS_4lessIS7_EELb1EEELi1ELb1EEC2B7v160006IRKSC_vEEOT_, symObjAddr: 0x4B44, symBinAddr: 0x100005C60, symSize: 0x18 }
  - { offsetInCU: 0xFD84, offset: 0xFD84, size: 0x8, addend: 0x0, symName: __ZNSt3__117__compressed_pairINS_15__tree_end_nodeIPNS_16__tree_node_baseIPvEEEENS_9allocatorINS_11__tree_nodeINS_12__value_typeINS_12basic_stringIcNS_11char_traitsIcEENS7_IcEEEEiEES3_EEEEE5firstB7v160006Ev, symObjAddr: 0x4B5C, symBinAddr: 0x100005C78, symSize: 0x24 }
  - { offsetInCU: 0xFDAA, offset: 0xFDAA, size: 0x8, addend: 0x0, symName: __ZNSt3__13mapINS_12basic_stringIcNS_11char_traitsIcEENS_9allocatorIcEEEEiNS_4lessIS6_EENS4_INS_4pairIKS6_iEEEEED2B7v160006Ev, symObjAddr: 0x4B80, symBinAddr: 0x100005C9C, symSize: 0x2C }
  - { offsetInCU: 0xFDD4, offset: 0xFDD4, size: 0x8, addend: 0x0, symName: __ZNSt3__16__treeINS_12__value_typeINS_12basic_stringIcNS_11char_traitsIcEENS_9allocatorIcEEEEiEENS_19__map_value_compareIS7_S8_NS_4lessIS7_EELb1EEENS5_IS8_EEED1Ev, symObjAddr: 0x4BAC, symBinAddr: 0x100005CC8, symSize: 0x2C }
  - { offsetInCU: 0xFE00, offset: 0xFE00, size: 0x8, addend: 0x0, symName: __ZNSt3__16__treeINS_12__value_typeINS_12basic_stringIcNS_11char_traitsIcEENS_9allocatorIcEEEEiEENS_19__map_value_compareIS7_S8_NS_4lessIS7_EELb1EEENS5_IS8_EEED2Ev, symObjAddr: 0x4BD8, symBinAddr: 0x100005CF4, symSize: 0x38 }
  - { offsetInCU: 0xFE2C, offset: 0xFE2C, size: 0x8, addend: 0x0, symName: __ZNSt3__16__treeINS_12__value_typeINS_12basic_stringIcNS_11char_traitsIcEENS_9allocatorIcEEEEiEENS_19__map_value_compareIS7_S8_NS_4lessIS7_EELb1EEENS5_IS8_EEE7destroyEPNS_11__tree_nodeIS8_PvEE, symObjAddr: 0x4C10, symBinAddr: 0x100005D2C, symSize: 0xAC }
  - { offsetInCU: 0xFE78, offset: 0xFE78, size: 0x8, addend: 0x0, symName: __ZNKSt3__16__treeINS_12__value_typeINS_12basic_stringIcNS_11char_traitsIcEENS_9allocatorIcEEEEiEENS_19__map_value_compareIS7_S8_NS_4lessIS7_EELb1EEENS5_IS8_EEE6__rootB7v160006Ev, symObjAddr: 0x4CBC, symBinAddr: 0x100005DD8, symSize: 0x28 }
  - { offsetInCU: 0xFE9E, offset: 0xFE9E, size: 0x8, addend: 0x0, symName: __ZNSt3__16__treeINS_12__value_typeINS_12basic_stringIcNS_11char_traitsIcEENS_9allocatorIcEEEEiEENS_19__map_value_compareIS7_S8_NS_4lessIS7_EELb1EEENS5_IS8_EEE12__node_allocB7v160006Ev, symObjAddr: 0x4CE4, symBinAddr: 0x100005E00, symSize: 0x28 }
  - { offsetInCU: 0xFEC4, offset: 0xFEC4, size: 0x8, addend: 0x0, symName: __ZNSt3__116allocator_traitsINS_9allocatorINS_11__tree_nodeINS_12__value_typeINS_12basic_stringIcNS_11char_traitsIcEENS1_IcEEEEiEEPvEEEEE7destroyB7v160006INS_4pairIKS8_iEEvvEEvRSC_PT_, symObjAddr: 0x4D0C, symBinAddr: 0x100005E28, symSize: 0x28 }
  - { offsetInCU: 0xFEFF, offset: 0xFEFF, size: 0x8, addend: 0x0, symName: __ZNSt3__122__tree_key_value_typesINS_12__value_typeINS_12basic_stringIcNS_11char_traitsIcEENS_9allocatorIcEEEEiEEE9__get_ptrB7v160006ERS8_, symObjAddr: 0x4D34, symBinAddr: 0x100005E50, symSize: 0x24 }
  - { offsetInCU: 0xFF23, offset: 0xFF23, size: 0x8, addend: 0x0, symName: __ZNSt3__116allocator_traitsINS_9allocatorINS_11__tree_nodeINS_12__value_typeINS_12basic_stringIcNS_11char_traitsIcEENS1_IcEEEEiEEPvEEEEE10deallocateB7v160006ERSC_PSB_m, symObjAddr: 0x4D58, symBinAddr: 0x100005E74, symSize: 0x34 }
  - { offsetInCU: 0xFF65, offset: 0xFF65, size: 0x8, addend: 0x0, symName: __ZNSt3__117__compressed_pairINS_15__tree_end_nodeIPNS_16__tree_node_baseIPvEEEENS_9allocatorINS_11__tree_nodeINS_12__value_typeINS_12basic_stringIcNS_11char_traitsIcEENS7_IcEEEEiEES3_EEEEE6secondB7v160006Ev, symObjAddr: 0x4D8C, symBinAddr: 0x100005EA8, symSize: 0x24 }
  - { offsetInCU: 0xFF8B, offset: 0xFF8B, size: 0x8, addend: 0x0, symName: __ZNSt3__122__compressed_pair_elemINS_9allocatorINS_11__tree_nodeINS_12__value_typeINS_12basic_stringIcNS_11char_traitsIcEENS1_IcEEEEiEEPvEEEELi1ELb1EE5__getB7v160006Ev, symObjAddr: 0x4DB0, symBinAddr: 0x100005ECC, symSize: 0x14 }
  - { offsetInCU: 0xFFB1, offset: 0xFFB1, size: 0x8, addend: 0x0, symName: __ZNSt3__112__value_typeINS_12basic_stringIcNS_11char_traitsIcEENS_9allocatorIcEEEEiE11__get_valueB7v160006Ev, symObjAddr: 0x4DC4, symBinAddr: 0x100005EE0, symSize: 0x14 }
  - { offsetInCU: 0xFFD7, offset: 0xFFD7, size: 0x8, addend: 0x0, symName: __ZNSt3__19allocatorINS_11__tree_nodeINS_12__value_typeINS_12basic_stringIcNS_11char_traitsIcEENS0_IcEEEEiEEPvEEE10deallocateB7v160006EPSA_m, symObjAddr: 0x4DD8, symBinAddr: 0x100005EF4, symSize: 0x40 }
  - { offsetInCU: 0x10019, offset: 0x10019, size: 0x8, addend: 0x0, symName: __ZNKSt3__16__treeINS_12__value_typeINS_12basic_stringIcNS_11char_traitsIcEENS_9allocatorIcEEEEiEENS_19__map_value_compareIS7_S8_NS_4lessIS7_EELb1EEENS5_IS8_EEE10__end_nodeB7v160006Ev, symObjAddr: 0x4E18, symBinAddr: 0x100005F34, symSize: 0x2C }
  - { offsetInCU: 0x1003F, offset: 0x1003F, size: 0x8, addend: 0x0, symName: __ZNKSt3__117__compressed_pairINS_15__tree_end_nodeIPNS_16__tree_node_baseIPvEEEENS_9allocatorINS_11__tree_nodeINS_12__value_typeINS_12basic_stringIcNS_11char_traitsIcEENS7_IcEEEEiEES3_EEEEE5firstB7v160006Ev, symObjAddr: 0x4E44, symBinAddr: 0x100005F60, symSize: 0x24 }
  - { offsetInCU: 0x10065, offset: 0x10065, size: 0x8, addend: 0x0, symName: __ZNSt3__112basic_stringIcNS_11char_traitsIcEENS_9allocatorIcEEEC2B7v160006IDnEEPKc, symObjAddr: 0x4E68, symBinAddr: 0x100005F84, symSize: 0x60 }
  - { offsetInCU: 0x100B7, offset: 0x100B7, size: 0x8, addend: 0x0, symName: __ZNSt3__16__treeINS_12__value_typeINS_12basic_stringIcNS_11char_traitsIcEENS_9allocatorIcEEEEiEENS_19__map_value_compareIS7_S8_NS_4lessIS7_EELb1EEENS5_IS8_EEE25__emplace_unique_key_argsIS7_JRKNS_21piecewise_construct_tENS_5tupleIJOS7_EEENSJ_IJEEEEEENS_4pairINS_15__tree_iteratorIS8_PNS_11__tree_nodeIS8_PvEElEEbEERKT_DpOT0_, symObjAddr: 0x4EC8, symBinAddr: 0x100005FE4, symSize: 0x100 }
  - { offsetInCU: 0x1018D, offset: 0x1018D, size: 0x8, addend: 0x0, symName: __ZNKSt3__115__tree_iteratorINS_12__value_typeINS_12basic_stringIcNS_11char_traitsIcEENS_9allocatorIcEEEEiEEPNS_11__tree_nodeIS8_PvEElEptB7v160006Ev, symObjAddr: 0x4FF8, symBinAddr: 0x100006114, symSize: 0x2C }
  - { offsetInCU: 0x101B3, offset: 0x101B3, size: 0x8, addend: 0x0, symName: __ZNSt3__16__treeINS_12__value_typeINS_12basic_stringIcNS_11char_traitsIcEENS_9allocatorIcEEEEiEENS_19__map_value_compareIS7_S8_NS_4lessIS7_EELb1EEENS5_IS8_EEE12__find_equalIS7_EERPNS_16__tree_node_baseIPvEERPNS_15__tree_end_nodeISJ_EERKT_, symObjAddr: 0x5024, symBinAddr: 0x100006140, symSize: 0x184 }
  - { offsetInCU: 0x10220, offset: 0x10220, size: 0x8, addend: 0x0, symName: __ZNSt3__16__treeINS_12__value_typeINS_12basic_stringIcNS_11char_traitsIcEENS_9allocatorIcEEEEiEENS_19__map_value_compareIS7_S8_NS_4lessIS7_EELb1EEENS5_IS8_EEE16__construct_nodeIJRKNS_21piecewise_construct_tENS_5tupleIJOS7_EEENSJ_IJEEEEEENS_10unique_ptrINS_11__tree_nodeIS8_PvEENS_22__tree_node_destructorINS5_ISQ_EEEEEEDpOT_, symObjAddr: 0x51A8, symBinAddr: 0x1000062C4, symSize: 0x120 }
  - { offsetInCU: 0x102A9, offset: 0x102A9, size: 0x8, addend: 0x0, symName: __ZNSt3__16__treeINS_12__value_typeINS_12basic_stringIcNS_11char_traitsIcEENS_9allocatorIcEEEEiEENS_19__map_value_compareIS7_S8_NS_4lessIS7_EELb1EEENS5_IS8_EEE16__insert_node_atEPNS_15__tree_end_nodeIPNS_16__tree_node_baseIPvEEEERSJ_SJ_, symObjAddr: 0x52C8, symBinAddr: 0x1000063E4, symSize: 0xCC }
  - { offsetInCU: 0x102FE, offset: 0x102FE, size: 0x8, addend: 0x0, symName: __ZNKSt3__110unique_ptrINS_11__tree_nodeINS_12__value_typeINS_12basic_stringIcNS_11char_traitsIcEENS_9allocatorIcEEEEiEEPvEENS_22__tree_node_destructorINS6_ISB_EEEEE3getB7v160006Ev, symObjAddr: 0x5394, symBinAddr: 0x1000064B0, symSize: 0x28 }
  - { offsetInCU: 0x10324, offset: 0x10324, size: 0x8, addend: 0x0, symName: __ZNSt3__110unique_ptrINS_11__tree_nodeINS_12__value_typeINS_12basic_stringIcNS_11char_traitsIcEENS_9allocatorIcEEEEiEEPvEENS_22__tree_node_destructorINS6_ISB_EEEEE7releaseB7v160006Ev, symObjAddr: 0x53BC, symBinAddr: 0x1000064D8, symSize: 0x44 }
  - { offsetInCU: 0x10359, offset: 0x10359, size: 0x8, addend: 0x0, symName: __ZNSt3__110unique_ptrINS_11__tree_nodeINS_12__value_typeINS_12basic_stringIcNS_11char_traitsIcEENS_9allocatorIcEEEEiEEPvEENS_22__tree_node_destructorINS6_ISB_EEEEED1B7v160006Ev, symObjAddr: 0x5400, symBinAddr: 0x10000651C, symSize: 0x2C }
  - { offsetInCU: 0x10383, offset: 0x10383, size: 0x8, addend: 0x0, symName: __ZNSt3__115__tree_iteratorINS_12__value_typeINS_12basic_stringIcNS_11char_traitsIcEENS_9allocatorIcEEEEiEEPNS_11__tree_nodeIS8_PvEElEC1B7v160006ESC_, symObjAddr: 0x542C, symBinAddr: 0x100006548, symSize: 0x34 }
  - { offsetInCU: 0x103C1, offset: 0x103C1, size: 0x8, addend: 0x0, symName: __ZNSt3__14pairINS_15__tree_iteratorINS_12__value_typeINS_12basic_stringIcNS_11char_traitsIcEENS_9allocatorIcEEEEiEEPNS_11__tree_nodeIS9_PvEElEEbEC1B7v160006ISE_RbLSB_0EEEOT_OT0_, symObjAddr: 0x5460, symBinAddr: 0x10000657C, symSize: 0x3C }
  - { offsetInCU: 0x1041F, offset: 0x1041F, size: 0x8, addend: 0x0, symName: __ZNKSt3__16__treeINS_12__value_typeINS_12basic_stringIcNS_11char_traitsIcEENS_9allocatorIcEEEEiEENS_19__map_value_compareIS7_S8_NS_4lessIS7_EELb1EEENS5_IS8_EEE10__root_ptrEv, symObjAddr: 0x549C, symBinAddr: 0x1000065B8, symSize: 0x24 }
  - { offsetInCU: 0x10445, offset: 0x10445, size: 0x8, addend: 0x0, symName: __ZNSt3__16__treeINS_12__value_typeINS_12basic_stringIcNS_11char_traitsIcEENS_9allocatorIcEEEEiEENS_19__map_value_compareIS7_S8_NS_4lessIS7_EELb1EEENS5_IS8_EEE10value_compB7v160006Ev, symObjAddr: 0x54C0, symBinAddr: 0x1000065DC, symSize: 0x28 }
  - { offsetInCU: 0x1046B, offset: 0x1046B, size: 0x8, addend: 0x0, symName: __ZNKSt3__119__map_value_compareINS_12basic_stringIcNS_11char_traitsIcEENS_9allocatorIcEEEENS_12__value_typeIS6_iEENS_4lessIS6_EELb1EEclB7v160006ERKS6_RKS8_, symObjAddr: 0x54E8, symBinAddr: 0x100006604, symSize: 0x50 }
  - { offsetInCU: 0x104AF, offset: 0x104AF, size: 0x8, addend: 0x0, symName: __ZNKSt3__119__map_value_compareINS_12basic_stringIcNS_11char_traitsIcEENS_9allocatorIcEEEENS_12__value_typeIS6_iEENS_4lessIS6_EELb1EEclB7v160006ERKS8_RKS6_, symObjAddr: 0x5538, symBinAddr: 0x100006654, symSize: 0x48 }
  - { offsetInCU: 0x104F3, offset: 0x104F3, size: 0x8, addend: 0x0, symName: __ZNSt3__117__compressed_pairImNS_19__map_value_compareINS_12basic_stringIcNS_11char_traitsIcEENS_9allocatorIcEEEENS_12__value_typeIS7_iEENS_4lessIS7_EELb1EEEE6secondB7v160006Ev, symObjAddr: 0x5580, symBinAddr: 0x10000669C, symSize: 0x24 }
  - { offsetInCU: 0x10519, offset: 0x10519, size: 0x8, addend: 0x0, symName: __ZNSt3__122__compressed_pair_elemINS_19__map_value_compareINS_12basic_stringIcNS_11char_traitsIcEENS_9allocatorIcEEEENS_12__value_typeIS7_iEENS_4lessIS7_EELb1EEELi1ELb1EE5__getB7v160006Ev, symObjAddr: 0x55A4, symBinAddr: 0x1000066C0, symSize: 0x14 }
  - { offsetInCU: 0x1053F, offset: 0x1053F, size: 0x8, addend: 0x0, symName: __ZNKSt3__14lessINS_12basic_stringIcNS_11char_traitsIcEENS_9allocatorIcEEEEEclB7v160006ERKS6_S9_, symObjAddr: 0x55B8, symBinAddr: 0x1000066D4, symSize: 0x34 }
  - { offsetInCU: 0x10583, offset: 0x10583, size: 0x8, addend: 0x0, symName: __ZNKSt3__112__value_typeINS_12basic_stringIcNS_11char_traitsIcEENS_9allocatorIcEEEEiE11__get_valueB7v160006Ev, symObjAddr: 0x55EC, symBinAddr: 0x100006708, symSize: 0x14 }
  - { offsetInCU: 0x105A9, offset: 0x105A9, size: 0x8, addend: 0x0, symName: __ZNKSt3__112basic_stringIcNS_11char_traitsIcEENS_9allocatorIcEEE7compareB7v160006ERKS5_, symObjAddr: 0x5638, symBinAddr: 0x100006754, symSize: 0x4C }
  - { offsetInCU: 0x105E0, offset: 0x105E0, size: 0x8, addend: 0x0, symName: __ZNKSt3__112basic_stringIcNS_11char_traitsIcEENS_9allocatorIcEEE7compareINS_17basic_string_viewIcS2_EEEENS_9enable_ifIXsr33__can_be_converted_to_string_viewIcS2_T_EE5valueEiE4typeERKSA_, symObjAddr: 0x5684, symBinAddr: 0x1000067A0, symSize: 0x12C }
  - { offsetInCU: 0x1065D, offset: 0x1065D, size: 0x8, addend: 0x0, symName: __ZNKSt3__112basic_stringIcNS_11char_traitsIcEENS_9allocatorIcEEEcvNS_17basic_string_viewIcS2_EEB7v160006Ev, symObjAddr: 0x57B0, symBinAddr: 0x1000068CC, symSize: 0x50 }
  - { offsetInCU: 0x10683, offset: 0x10683, size: 0x8, addend: 0x0, symName: __ZNKSt3__112basic_stringIcNS_11char_traitsIcEENS_9allocatorIcEEE4sizeB7v160006Ev, symObjAddr: 0x5800, symBinAddr: 0x10000691C, symSize: 0x54 }
  - { offsetInCU: 0x106A9, offset: 0x106A9, size: 0x8, addend: 0x0, symName: __ZNKSt3__117basic_string_viewIcNS_11char_traitsIcEEE4sizeB7v160006Ev, symObjAddr: 0x5854, symBinAddr: 0x100006970, symSize: 0x18 }
  - { offsetInCU: 0x106CF, offset: 0x106CF, size: 0x8, addend: 0x0, symName: __ZNSt3__111char_traitsIcE7compareEPKcS3_m, symObjAddr: 0x586C, symBinAddr: 0x100006988, symSize: 0x6C }
  - { offsetInCU: 0x1070E, offset: 0x1070E, size: 0x8, addend: 0x0, symName: __ZNKSt3__117basic_string_viewIcNS_11char_traitsIcEEE4dataB7v160006Ev, symObjAddr: 0x58D8, symBinAddr: 0x1000069F4, symSize: 0x18 }
  - { offsetInCU: 0x10734, offset: 0x10734, size: 0x8, addend: 0x0, symName: __ZNKSt3__112basic_stringIcNS_11char_traitsIcEENS_9allocatorIcEEE15__get_long_sizeB7v160006Ev, symObjAddr: 0x591C, symBinAddr: 0x100006A38, symSize: 0x28 }
  - { offsetInCU: 0x1075A, offset: 0x1075A, size: 0x8, addend: 0x0, symName: __ZNKSt3__112basic_stringIcNS_11char_traitsIcEENS_9allocatorIcEEE16__get_short_sizeB7v160006Ev, symObjAddr: 0x5944, symBinAddr: 0x100006A60, symSize: 0x34 }
  - { offsetInCU: 0x1078A, offset: 0x1078A, size: 0x8, addend: 0x0, symName: __ZNKSt3__16__lessImmEclB7v160006ERKmS3_, symObjAddr: 0x5A00, symBinAddr: 0x100006B1C, symSize: 0x34 }
  - { offsetInCU: 0x107CC, offset: 0x107CC, size: 0x8, addend: 0x0, symName: __ZNSt3__117basic_string_viewIcNS_11char_traitsIcEEEC1B7v160006EPKcm, symObjAddr: 0x5A34, symBinAddr: 0x100006B50, symSize: 0x3C }
  - { offsetInCU: 0x10814, offset: 0x10814, size: 0x8, addend: 0x0, symName: __ZNSt3__117basic_string_viewIcNS_11char_traitsIcEEEC2B7v160006EPKcm, symObjAddr: 0x5A70, symBinAddr: 0x100006B8C, symSize: 0x2C }
  - { offsetInCU: 0x1085C, offset: 0x1085C, size: 0x8, addend: 0x0, symName: __ZNSt3__116allocator_traitsINS_9allocatorINS_11__tree_nodeINS_12__value_typeINS_12basic_stringIcNS_11char_traitsIcEENS1_IcEEEEiEEPvEEEEE8allocateB7v160006ERSC_m, symObjAddr: 0x5A9C, symBinAddr: 0x100006BB8, symSize: 0x2C }
  - { offsetInCU: 0x1088F, offset: 0x1088F, size: 0x8, addend: 0x0, symName: __ZNSt3__122__tree_node_destructorINS_9allocatorINS_11__tree_nodeINS_12__value_typeINS_12basic_stringIcNS_11char_traitsIcEENS1_IcEEEEiEEPvEEEEEC1B7v160006ERSC_b, symObjAddr: 0x5AC8, symBinAddr: 0x100006BE4, symSize: 0x48 }
  - { offsetInCU: 0x108DC, offset: 0x108DC, size: 0x8, addend: 0x0, symName: __ZNSt3__110unique_ptrINS_11__tree_nodeINS_12__value_typeINS_12basic_stringIcNS_11char_traitsIcEENS_9allocatorIcEEEEiEEPvEENS_22__tree_node_destructorINS6_ISB_EEEEEC1B7v160006ILb1EvEEPSB_NS_16__dependent_typeINS_27__unique_ptr_deleter_sfinaeISE_EEXT_EE20__good_rval_ref_typeE, symObjAddr: 0x5B10, symBinAddr: 0x100006C2C, symSize: 0x3C }
  - { offsetInCU: 0x1092D, offset: 0x1092D, size: 0x8, addend: 0x0, symName: __ZNSt3__116allocator_traitsINS_9allocatorINS_11__tree_nodeINS_12__value_typeINS_12basic_stringIcNS_11char_traitsIcEENS1_IcEEEEiEEPvEEEEE9constructB7v160006INS_4pairIKS8_iEEJRKNS_21piecewise_construct_tENS_5tupleIJOS8_EEENSL_IJEEEEvEEvRSC_PT_DpOT0_, symObjAddr: 0x5B4C, symBinAddr: 0x100006C68, symSize: 0x44 }
  - { offsetInCU: 0x109AC, offset: 0x109AC, size: 0x8, addend: 0x0, symName: __ZNKSt3__110unique_ptrINS_11__tree_nodeINS_12__value_typeINS_12basic_stringIcNS_11char_traitsIcEENS_9allocatorIcEEEEiEEPvEENS_22__tree_node_destructorINS6_ISB_EEEEEptB7v160006Ev, symObjAddr: 0x5B90, symBinAddr: 0x100006CAC, symSize: 0x28 }
  - { offsetInCU: 0x109D2, offset: 0x109D2, size: 0x8, addend: 0x0, symName: __ZNSt3__110unique_ptrINS_11__tree_nodeINS_12__value_typeINS_12basic_stringIcNS_11char_traitsIcEENS_9allocatorIcEEEEiEEPvEENS_22__tree_node_destructorINS6_ISB_EEEEE11get_deleterB7v160006Ev, symObjAddr: 0x5BB8, symBinAddr: 0x100006CD4, symSize: 0x24 }
  - { offsetInCU: 0x109F8, offset: 0x109F8, size: 0x8, addend: 0x0, symName: __ZNSt3__19allocatorINS_11__tree_nodeINS_12__value_typeINS_12basic_stringIcNS_11char_traitsIcEENS0_IcEEEEiEEPvEEE8allocateB7v160006Em, symObjAddr: 0x5BDC, symBinAddr: 0x100006CF8, symSize: 0x58 }
  - { offsetInCU: 0x10A36, offset: 0x10A36, size: 0x8, addend: 0x0, symName: __ZNSt3__116allocator_traitsINS_9allocatorINS_11__tree_nodeINS_12__value_typeINS_12basic_stringIcNS_11char_traitsIcEENS1_IcEEEEiEEPvEEEEE8max_sizeB7v160006ISC_vEEmRKSC_, symObjAddr: 0x5C34, symBinAddr: 0x100006D50, symSize: 0x24 }
  - { offsetInCU: 0x10A64, offset: 0x10A64, size: 0x8, addend: 0x0, symName: __ZNKSt3__19allocatorINS_11__tree_nodeINS_12__value_typeINS_12basic_stringIcNS_11char_traitsIcEENS0_IcEEEEiEEPvEEE8max_sizeB7v160006Ev, symObjAddr: 0x5C58, symBinAddr: 0x100006D74, symSize: 0x14 }
  - { offsetInCU: 0x10A8A, offset: 0x10A8A, size: 0x8, addend: 0x0, symName: __ZNSt3__122__tree_node_destructorINS_9allocatorINS_11__tree_nodeINS_12__value_typeINS_12basic_stringIcNS_11char_traitsIcEENS1_IcEEEEiEEPvEEEEEC2B7v160006ERSC_b, symObjAddr: 0x5C6C, symBinAddr: 0x100006D88, symSize: 0x38 }
  - { offsetInCU: 0x10AD2, offset: 0x10AD2, size: 0x8, addend: 0x0, symName: __ZNSt3__110unique_ptrINS_11__tree_nodeINS_12__value_typeINS_12basic_stringIcNS_11char_traitsIcEENS_9allocatorIcEEEEiEEPvEENS_22__tree_node_destructorINS6_ISB_EEEEEC2B7v160006ILb1EvEEPSB_NS_16__dependent_typeINS_27__unique_ptr_deleter_sfinaeISE_EEXT_EE20__good_rval_ref_typeE, symObjAddr: 0x5CA4, symBinAddr: 0x100006DC0, symSize: 0x48 }
  - { offsetInCU: 0x10B23, offset: 0x10B23, size: 0x8, addend: 0x0, symName: __ZNSt3__117__compressed_pairIPNS_11__tree_nodeINS_12__value_typeINS_12basic_stringIcNS_11char_traitsIcEENS_9allocatorIcEEEEiEEPvEENS_22__tree_node_destructorINS6_ISB_EEEEEC1B7v160006IRSC_SF_EEOT_OT0_, symObjAddr: 0x5CEC, symBinAddr: 0x100006E08, symSize: 0x3C }
  - { offsetInCU: 0x10B7B, offset: 0x10B7B, size: 0x8, addend: 0x0, symName: __ZNSt3__117__compressed_pairIPNS_11__tree_nodeINS_12__value_typeINS_12basic_stringIcNS_11char_traitsIcEENS_9allocatorIcEEEEiEEPvEENS_22__tree_node_destructorINS6_ISB_EEEEEC2B7v160006IRSC_SF_EEOT_OT0_, symObjAddr: 0x5D28, symBinAddr: 0x100006E44, symSize: 0x48 }
  - { offsetInCU: 0x10BD3, offset: 0x10BD3, size: 0x8, addend: 0x0, symName: __ZNSt3__122__compressed_pair_elemIPNS_11__tree_nodeINS_12__value_typeINS_12basic_stringIcNS_11char_traitsIcEENS_9allocatorIcEEEEiEEPvEELi0ELb0EEC2B7v160006IRSC_vEEOT_, symObjAddr: 0x5D70, symBinAddr: 0x100006E8C, symSize: 0x24 }
  - { offsetInCU: 0x10C15, offset: 0x10C15, size: 0x8, addend: 0x0, symName: __ZNSt3__122__compressed_pair_elemINS_22__tree_node_destructorINS_9allocatorINS_11__tree_nodeINS_12__value_typeINS_12basic_stringIcNS_11char_traitsIcEENS2_IcEEEEiEEPvEEEEEELi1ELb0EEC2B7v160006ISE_vEEOT_, symObjAddr: 0x5D94, symBinAddr: 0x100006EB0, symSize: 0x24 }
  - { offsetInCU: 0x10C57, offset: 0x10C57, size: 0x8, addend: 0x0, symName: __ZNSt3__19allocatorINS_11__tree_nodeINS_12__value_typeINS_12basic_stringIcNS_11char_traitsIcEENS0_IcEEEEiEEPvEEE9constructB7v160006INS_4pairIKS7_iEEJRKNS_21piecewise_construct_tENS_5tupleIJOS7_EEENSJ_IJEEEEEEvPT_DpOT0_, symObjAddr: 0x5DB8, symBinAddr: 0x100006ED4, symSize: 0x44 }
  - { offsetInCU: 0x10CD3, offset: 0x10CD3, size: 0x8, addend: 0x0, symName: __ZNSt3__14pairIKNS_12basic_stringIcNS_11char_traitsIcEENS_9allocatorIcEEEEiEC1B7v160006IJOS6_EJEEENS_21piecewise_construct_tENS_5tupleIJDpT_EEENSC_IJDpT0_EEE, symObjAddr: 0x5DFC, symBinAddr: 0x100006F18, symSize: 0x44 }
  - { offsetInCU: 0x10D3A, offset: 0x10D3A, size: 0x8, addend: 0x0, symName: __ZNSt3__14pairIKNS_12basic_stringIcNS_11char_traitsIcEENS_9allocatorIcEEEEiEC1B7v160006IJOS6_EJEJLm0EEJEEENS_21piecewise_construct_tERNS_5tupleIJDpT_EEERNSC_IJDpT0_EEENS_15__tuple_indicesIJXspT1_EEEENSL_IJXspT2_EEEE, symObjAddr: 0x5E40, symBinAddr: 0x100006F5C, symSize: 0x3C }
  - { offsetInCU: 0x10DCA, offset: 0x10DCA, size: 0x8, addend: 0x0, symName: __ZNSt3__14pairIKNS_12basic_stringIcNS_11char_traitsIcEENS_9allocatorIcEEEEiEC2B7v160006IJOS6_EJEJLm0EEJEEENS_21piecewise_construct_tERNS_5tupleIJDpT_EEERNSC_IJDpT0_EEENS_15__tuple_indicesIJXspT1_EEEENSL_IJXspT2_EEEE, symObjAddr: 0x5E7C, symBinAddr: 0x100006F98, symSize: 0x48 }
  - { offsetInCU: 0x10E5A, offset: 0x10E5A, size: 0x8, addend: 0x0, symName: __ZNSt3__112basic_stringIcNS_11char_traitsIcEENS_9allocatorIcEEEC1B7v160006EOS5_, symObjAddr: 0x5EE8, symBinAddr: 0x100007004, symSize: 0x34 }
  - { offsetInCU: 0x10E93, offset: 0x10E93, size: 0x8, addend: 0x0, symName: __ZNSt3__112__tuple_leafILm0EONS_12basic_stringIcNS_11char_traitsIcEENS_9allocatorIcEEEELb0EE3getB7v160006Ev, symObjAddr: 0x5F1C, symBinAddr: 0x100007038, symSize: 0x18 }
  - { offsetInCU: 0x10EB9, offset: 0x10EB9, size: 0x8, addend: 0x0, symName: __ZNSt3__112basic_stringIcNS_11char_traitsIcEENS_9allocatorIcEEEC2B7v160006EOS5_, symObjAddr: 0x5F34, symBinAddr: 0x100007050, symSize: 0x84 }
  - { offsetInCU: 0x10EF2, offset: 0x10EF2, size: 0x8, addend: 0x0, symName: __ZNSt3__112basic_stringIcNS_11char_traitsIcEENS_9allocatorIcEEE14__default_initB7v160006Ev, symObjAddr: 0x5FB8, symBinAddr: 0x1000070D4, symSize: 0x40 }
  - { offsetInCU: 0x10F18, offset: 0x10F18, size: 0x8, addend: 0x0, symName: __ZNSt3__117__compressed_pairINS_12basic_stringIcNS_11char_traitsIcEENS_9allocatorIcEEE5__repES5_E5firstB7v160006Ev, symObjAddr: 0x600C, symBinAddr: 0x100007128, symSize: 0x24 }
  - { offsetInCU: 0x10F3E, offset: 0x10F3E, size: 0x8, addend: 0x0, symName: __ZNSt3__122__compressed_pair_elemINS_12basic_stringIcNS_11char_traitsIcEENS_9allocatorIcEEE5__repELi0ELb0EE5__getB7v160006Ev, symObjAddr: 0x6030, symBinAddr: 0x10000714C, symSize: 0x14 }
  - { offsetInCU: 0x10F64, offset: 0x10F64, size: 0x8, addend: 0x0, symName: __ZNKSt3__117__compressed_pairIPNS_11__tree_nodeINS_12__value_typeINS_12basic_stringIcNS_11char_traitsIcEENS_9allocatorIcEEEEiEEPvEENS_22__tree_node_destructorINS6_ISB_EEEEE5firstB7v160006Ev, symObjAddr: 0x6044, symBinAddr: 0x100007160, symSize: 0x24 }
  - { offsetInCU: 0x10F8A, offset: 0x10F8A, size: 0x8, addend: 0x0, symName: __ZNKSt3__122__compressed_pair_elemIPNS_11__tree_nodeINS_12__value_typeINS_12basic_stringIcNS_11char_traitsIcEENS_9allocatorIcEEEEiEEPvEELi0ELb0EE5__getB7v160006Ev, symObjAddr: 0x6068, symBinAddr: 0x100007184, symSize: 0x14 }
  - { offsetInCU: 0x10FB0, offset: 0x10FB0, size: 0x8, addend: 0x0, symName: __ZNSt3__117__compressed_pairIPNS_11__tree_nodeINS_12__value_typeINS_12basic_stringIcNS_11char_traitsIcEENS_9allocatorIcEEEEiEEPvEENS_22__tree_node_destructorINS6_ISB_EEEEE6secondB7v160006Ev, symObjAddr: 0x607C, symBinAddr: 0x100007198, symSize: 0x28 }
  - { offsetInCU: 0x10FD6, offset: 0x10FD6, size: 0x8, addend: 0x0, symName: __ZNSt3__122__compressed_pair_elemINS_22__tree_node_destructorINS_9allocatorINS_11__tree_nodeINS_12__value_typeINS_12basic_stringIcNS_11char_traitsIcEENS2_IcEEEEiEEPvEEEEEELi1ELb0EE5__getB7v160006Ev, symObjAddr: 0x60A4, symBinAddr: 0x1000071C0, symSize: 0x14 }
  - { offsetInCU: 0x10FFC, offset: 0x10FFC, size: 0x8, addend: 0x0, symName: __ZNSt3__16__treeINS_12__value_typeINS_12basic_stringIcNS_11char_traitsIcEENS_9allocatorIcEEEEiEENS_19__map_value_compareIS7_S8_NS_4lessIS7_EELb1EEENS5_IS8_EEE4sizeB7v160006Ev, symObjAddr: 0x60B8, symBinAddr: 0x1000071D4, symSize: 0x28 }
  - { offsetInCU: 0x11022, offset: 0x11022, size: 0x8, addend: 0x0, symName: __ZNSt3__117__compressed_pairImNS_19__map_value_compareINS_12basic_stringIcNS_11char_traitsIcEENS_9allocatorIcEEEENS_12__value_typeIS7_iEENS_4lessIS7_EELb1EEEE5firstB7v160006Ev, symObjAddr: 0x60E0, symBinAddr: 0x1000071FC, symSize: 0x24 }
  - { offsetInCU: 0x11048, offset: 0x11048, size: 0x8, addend: 0x0, symName: __ZNSt3__117__compressed_pairIPNS_11__tree_nodeINS_12__value_typeINS_12basic_stringIcNS_11char_traitsIcEENS_9allocatorIcEEEEiEEPvEENS_22__tree_node_destructorINS6_ISB_EEEEE5firstB7v160006Ev, symObjAddr: 0x6104, symBinAddr: 0x100007220, symSize: 0x24 }
  - { offsetInCU: 0x1106E, offset: 0x1106E, size: 0x8, addend: 0x0, symName: __ZNSt3__122__compressed_pair_elemIPNS_11__tree_nodeINS_12__value_typeINS_12basic_stringIcNS_11char_traitsIcEENS_9allocatorIcEEEEiEEPvEELi0ELb0EE5__getB7v160006Ev, symObjAddr: 0x6128, symBinAddr: 0x100007244, symSize: 0x14 }
  - { offsetInCU: 0x11094, offset: 0x11094, size: 0x8, addend: 0x0, symName: __ZNSt3__110unique_ptrINS_11__tree_nodeINS_12__value_typeINS_12basic_stringIcNS_11char_traitsIcEENS_9allocatorIcEEEEiEEPvEENS_22__tree_node_destructorINS6_ISB_EEEEED2B7v160006Ev, symObjAddr: 0x613C, symBinAddr: 0x100007258, symSize: 0x30 }
  - { offsetInCU: 0x110BE, offset: 0x110BE, size: 0x8, addend: 0x0, symName: __ZNSt3__110unique_ptrINS_11__tree_nodeINS_12__value_typeINS_12basic_stringIcNS_11char_traitsIcEENS_9allocatorIcEEEEiEEPvEENS_22__tree_node_destructorINS6_ISB_EEEEE5resetB7v160006EPSB_, symObjAddr: 0x616C, symBinAddr: 0x100007288, symSize: 0x78 }
  - { offsetInCU: 0x11102, offset: 0x11102, size: 0x8, addend: 0x0, symName: __ZNSt3__122__tree_node_destructorINS_9allocatorINS_11__tree_nodeINS_12__value_typeINS_12basic_stringIcNS_11char_traitsIcEENS1_IcEEEEiEEPvEEEEEclB7v160006EPSB_, symObjAddr: 0x61E4, symBinAddr: 0x100007300, symSize: 0x94 }
  - { offsetInCU: 0x11137, offset: 0x11137, size: 0x8, addend: 0x0, symName: __ZNSt3__115__tree_iteratorINS_12__value_typeINS_12basic_stringIcNS_11char_traitsIcEENS_9allocatorIcEEEEiEEPNS_11__tree_nodeIS8_PvEElEC2B7v160006ESC_, symObjAddr: 0x6278, symBinAddr: 0x100007394, symSize: 0x20 }
  - { offsetInCU: 0x11170, offset: 0x11170, size: 0x8, addend: 0x0, symName: __ZNSt3__14pairINS_15__tree_iteratorINS_12__value_typeINS_12basic_stringIcNS_11char_traitsIcEENS_9allocatorIcEEEEiEEPNS_11__tree_nodeIS9_PvEElEEbEC2B7v160006ISE_RbLSB_0EEEOT_OT0_, symObjAddr: 0x6298, symBinAddr: 0x1000073B4, symSize: 0x38 }
  - { offsetInCU: 0x111CE, offset: 0x111CE, size: 0x8, addend: 0x0, symName: __ZNSt3__15tupleIJONS_12basic_stringIcNS_11char_traitsIcEENS_9allocatorIcEEEEEEC1B7v160006IJS6_ELi0EEEDpOT_, symObjAddr: 0x62D0, symBinAddr: 0x1000073EC, symSize: 0x34 }
  - { offsetInCU: 0x11218, offset: 0x11218, size: 0x8, addend: 0x0, symName: __ZNSt3__15tupleIJONS_12basic_stringIcNS_11char_traitsIcEENS_9allocatorIcEEEEEEC2B7v160006IJS6_ELi0EEEDpOT_, symObjAddr: 0x6304, symBinAddr: 0x100007420, symSize: 0x34 }
  - { offsetInCU: 0x11262, offset: 0x11262, size: 0x8, addend: 0x0, symName: __ZNSt3__112__tuple_implINS_15__tuple_indicesIJLm0EEEEJONS_12basic_stringIcNS_11char_traitsIcEENS_9allocatorIcEEEEEEC1B7v160006IJLm0EEJS9_EJEJEJS8_EEENS1_IJXspT_EEEENS_13__tuple_typesIJDpT0_EEENS1_IJXspT1_EEEENSD_IJDpT2_EEEDpOT3_, symObjAddr: 0x6338, symBinAddr: 0x100007454, symSize: 0x34 }
  - { offsetInCU: 0x112F7, offset: 0x112F7, size: 0x8, addend: 0x0, symName: __ZNSt3__112__tuple_implINS_15__tuple_indicesIJLm0EEEEJONS_12basic_stringIcNS_11char_traitsIcEENS_9allocatorIcEEEEEEC2B7v160006IJLm0EEJS9_EJEJEJS8_EEENS1_IJXspT_EEEENS_13__tuple_typesIJDpT0_EEENS1_IJXspT1_EEEENSD_IJDpT2_EEEDpOT3_, symObjAddr: 0x636C, symBinAddr: 0x100007488, symSize: 0x34 }
  - { offsetInCU: 0x1138C, offset: 0x1138C, size: 0x8, addend: 0x0, symName: __ZNSt3__112__tuple_leafILm0EONS_12basic_stringIcNS_11char_traitsIcEENS_9allocatorIcEEEELb0EEC2B7v160006IS6_vEEOT_, symObjAddr: 0x63A0, symBinAddr: 0x1000074BC, symSize: 0x20 }
  - { offsetInCU: 0x113CF, offset: 0x113CF, size: 0x8, addend: 0x0, symName: __ZNSt3__114pointer_traitsIPNS_12__value_typeINS_12basic_stringIcNS_11char_traitsIcEENS_9allocatorIcEEEEiEEE10pointer_toB7v160006ERS8_, symObjAddr: 0x63C0, symBinAddr: 0x1000074DC, symSize: 0x14 }
  - { offsetInCU: 0x113F2, offset: 0x113F2, size: 0x8, addend: 0x0, symName: __ZNKSt3__115__tree_iteratorINS_12__value_typeINS_12basic_stringIcNS_11char_traitsIcEENS_9allocatorIcEEEEiEEPNS_11__tree_nodeIS8_PvEElE8__get_npB7v160006Ev, symObjAddr: 0x63D4, symBinAddr: 0x1000074F0, symSize: 0x18 }
  - { offsetInCU: 0x11418, offset: 0x11418, size: 0x8, addend: 0x0, symName: __ZNSt3__16__treeINS_12__value_typeINS_12basic_stringIcNS_11char_traitsIcEENS_9allocatorIcEEEEiEENS_19__map_value_compareIS7_S8_NS_4lessIS7_EELb1EEENS5_IS8_EEE5beginB7v160006Ev, symObjAddr: 0x63EC, symBinAddr: 0x100007508, symSize: 0x34 }
  - { offsetInCU: 0x1143E, offset: 0x1143E, size: 0x8, addend: 0x0, symName: __ZNSt3__114__map_iteratorINS_15__tree_iteratorINS_12__value_typeINS_12basic_stringIcNS_11char_traitsIcEENS_9allocatorIcEEEEiEEPNS_11__tree_nodeIS9_PvEElEEEC1B7v160006ESE_, symObjAddr: 0x6420, symBinAddr: 0x10000753C, symSize: 0x34 }
  - { offsetInCU: 0x11477, offset: 0x11477, size: 0x8, addend: 0x0, symName: __ZNSt3__115__tree_iteratorINS_12__value_typeINS_12basic_stringIcNS_11char_traitsIcEENS_9allocatorIcEEEEiEEPNS_11__tree_nodeIS8_PvEElEC1B7v160006EPNS_15__tree_end_nodeIPNS_16__tree_node_baseISA_EEEE, symObjAddr: 0x6454, symBinAddr: 0x100007570, symSize: 0x34 }
  - { offsetInCU: 0x114B0, offset: 0x114B0, size: 0x8, addend: 0x0, symName: __ZNSt3__115__tree_iteratorINS_12__value_typeINS_12basic_stringIcNS_11char_traitsIcEENS_9allocatorIcEEEEiEEPNS_11__tree_nodeIS8_PvEElEC2B7v160006EPNS_15__tree_end_nodeIPNS_16__tree_node_baseISA_EEEE, symObjAddr: 0x6488, symBinAddr: 0x1000075A4, symSize: 0x20 }
  - { offsetInCU: 0x114E9, offset: 0x114E9, size: 0x8, addend: 0x0, symName: __ZNSt3__114__map_iteratorINS_15__tree_iteratorINS_12__value_typeINS_12basic_stringIcNS_11char_traitsIcEENS_9allocatorIcEEEEiEEPNS_11__tree_nodeIS9_PvEElEEEC2B7v160006ESE_, symObjAddr: 0x64A8, symBinAddr: 0x1000075C4, symSize: 0x20 }
  - { offsetInCU: 0x11522, offset: 0x11522, size: 0x8, addend: 0x0, symName: __ZNSt3__16__treeINS_12__value_typeINS_12basic_stringIcNS_11char_traitsIcEENS_9allocatorIcEEEEiEENS_19__map_value_compareIS7_S8_NS_4lessIS7_EELb1EEENS5_IS8_EEE3endB7v160006Ev, symObjAddr: 0x64C8, symBinAddr: 0x1000075E4, symSize: 0x34 }
  - { offsetInCU: 0x11548, offset: 0x11548, size: 0x8, addend: 0x0, symName: __ZNSt3__115__tree_iteratorINS_12__value_typeINS_12basic_stringIcNS_11char_traitsIcEENS_9allocatorIcEEEEiEEPNS_11__tree_nodeIS8_PvEElEppB7v160006Ev, symObjAddr: 0x6560, symBinAddr: 0x10000767C, symSize: 0x38 }
...
